
lab1.elf:     file format elf32-avr

Sections:
Idx Name          Size      VMA       LMA       File off  Algn
  0 .data         0000012a  00800100  00001756  000017ea  2**0
                  CONTENTS, ALLOC, LOAD, DATA
  1 .text         00001756  00000000  00000000  00000094  2**1
                  CONTENTS, ALLOC, LOAD, READONLY, CODE
  2 .bss          00000018  0080022a  0080022a  00001914  2**0
                  ALLOC
  3 .comment      0000005c  00000000  00000000  00001914  2**0
                  CONTENTS, READONLY
  4 .debug_aranges 00000280  00000000  00000000  00001970  2**0
                  CONTENTS, READONLY, DEBUGGING
  5 .debug_info   0000290b  00000000  00000000  00001bf0  2**0
                  CONTENTS, READONLY, DEBUGGING
  6 .debug_abbrev 00000f9e  00000000  00000000  000044fb  2**0
                  CONTENTS, READONLY, DEBUGGING
  7 .debug_line   00000ecf  00000000  00000000  00005499  2**0
                  CONTENTS, READONLY, DEBUGGING
  8 .debug_frame  00000638  00000000  00000000  00006368  2**2
                  CONTENTS, READONLY, DEBUGGING
  9 .debug_str    00000945  00000000  00000000  000069a0  2**0
                  CONTENTS, READONLY, DEBUGGING
 10 .debug_loc    00001d9d  00000000  00000000  000072e5  2**0
                  CONTENTS, READONLY, DEBUGGING
 11 .debug_ranges 00000208  00000000  00000000  00009082  2**0
                  CONTENTS, READONLY, DEBUGGING

Disassembly of section .text:

00000000 <__vectors>:
       0:	0c 94 2d 01 	jmp	0x25a	; 0x25a <__ctors_end>
       4:	0c 94 4a 01 	jmp	0x294	; 0x294 <__bad_interrupt>
       8:	0c 94 4a 01 	jmp	0x294	; 0x294 <__bad_interrupt>
       c:	0c 94 32 04 	jmp	0x864	; 0x864 <__vector_3>
      10:	0c 94 4a 01 	jmp	0x294	; 0x294 <__bad_interrupt>
      14:	0c 94 4a 01 	jmp	0x294	; 0x294 <__bad_interrupt>
      18:	0c 94 4a 01 	jmp	0x294	; 0x294 <__bad_interrupt>
      1c:	0c 94 4a 01 	jmp	0x294	; 0x294 <__bad_interrupt>
      20:	0c 94 4a 01 	jmp	0x294	; 0x294 <__bad_interrupt>
      24:	0c 94 4a 01 	jmp	0x294	; 0x294 <__bad_interrupt>
      28:	0c 94 4a 01 	jmp	0x294	; 0x294 <__bad_interrupt>
      2c:	0c 94 4a 01 	jmp	0x294	; 0x294 <__bad_interrupt>
      30:	0c 94 4a 01 	jmp	0x294	; 0x294 <__bad_interrupt>
      34:	0c 94 4a 01 	jmp	0x294	; 0x294 <__bad_interrupt>
      38:	0c 94 4a 01 	jmp	0x294	; 0x294 <__bad_interrupt>
      3c:	0c 94 4a 01 	jmp	0x294	; 0x294 <__bad_interrupt>
      40:	0c 94 4a 01 	jmp	0x294	; 0x294 <__bad_interrupt>
      44:	0c 94 4a 01 	jmp	0x294	; 0x294 <__bad_interrupt>
      48:	0c 94 4a 01 	jmp	0x294	; 0x294 <__bad_interrupt>
      4c:	0c 94 4a 01 	jmp	0x294	; 0x294 <__bad_interrupt>
      50:	0c 94 4a 01 	jmp	0x294	; 0x294 <__bad_interrupt>
      54:	0c 94 4a 01 	jmp	0x294	; 0x294 <__bad_interrupt>
      58:	0c 94 4a 01 	jmp	0x294	; 0x294 <__bad_interrupt>
      5c:	0c 94 4a 01 	jmp	0x294	; 0x294 <__bad_interrupt>
      60:	0c 94 4a 01 	jmp	0x294	; 0x294 <__bad_interrupt>
      64:	0c 94 4a 01 	jmp	0x294	; 0x294 <__bad_interrupt>
      68:	0c 94 4a 01 	jmp	0x294	; 0x294 <__bad_interrupt>
      6c:	0c 94 4a 01 	jmp	0x294	; 0x294 <__bad_interrupt>

00000070 <__trampolines_end>:
      70:	00 00       	nop
      72:	00 00       	nop
      74:	00 00       	nop
      76:	00 5f       	subi	r16, 0xF0	; 240
      78:	00 00       	nop
      7a:	00 07       	cpc	r16, r16
      7c:	00 07       	cpc	r16, r16
      7e:	00 14       	cp	r0, r0
      80:	7f 14       	cp	r7, r15
      82:	7f 14       	cp	r7, r15
      84:	24 2a       	or	r2, r20
      86:	7f 2a       	or	r7, r31
      88:	12 23       	and	r17, r18
      8a:	13 08       	sbc	r1, r3
      8c:	64 62       	ori	r22, 0x24	; 36
      8e:	36 49       	sbci	r19, 0x96	; 150
      90:	55 22       	and	r5, r21
      92:	50 00       	.word	0x0050	; ????
      94:	05 03       	mulsu	r16, r21
      96:	00 00       	nop
      98:	00 1c       	adc	r0, r0
      9a:	22 41       	sbci	r18, 0x12	; 18
      9c:	00 00       	nop
      9e:	41 22       	and	r4, r17
      a0:	1c 00       	.word	0x001c	; ????
      a2:	08 2a       	or	r0, r24
      a4:	1c 2a       	or	r1, r28
      a6:	08 08       	sbc	r0, r8
      a8:	08 3e       	cpi	r16, 0xE8	; 232
      aa:	08 08       	sbc	r0, r8
      ac:	00 50       	subi	r16, 0x00	; 0
      ae:	30 00       	.word	0x0030	; ????
      b0:	00 08       	sbc	r0, r0
      b2:	08 08       	sbc	r0, r8
      b4:	08 08       	sbc	r0, r8
      b6:	00 60       	ori	r16, 0x00	; 0
      b8:	60 00       	.word	0x0060	; ????
      ba:	00 20       	and	r0, r0
      bc:	10 08       	sbc	r1, r0
      be:	04 02       	muls	r16, r20
      c0:	3e 51       	subi	r19, 0x1E	; 30
      c2:	49 45       	sbci	r20, 0x59	; 89
      c4:	3e 00       	.word	0x003e	; ????
      c6:	42 7f       	andi	r20, 0xF2	; 242
      c8:	40 00       	.word	0x0040	; ????
      ca:	42 61       	ori	r20, 0x12	; 18
      cc:	51 49       	sbci	r21, 0x91	; 145
      ce:	46 21       	and	r20, r6
      d0:	41 45       	sbci	r20, 0x51	; 81
      d2:	4b 31       	cpi	r20, 0x1B	; 27
      d4:	18 14       	cp	r1, r8
      d6:	12 7f       	andi	r17, 0xF2	; 242
      d8:	10 27       	eor	r17, r16
      da:	45 45       	sbci	r20, 0x55	; 85
      dc:	45 39       	cpi	r20, 0x95	; 149
      de:	3c 4a       	sbci	r19, 0xAC	; 172
      e0:	49 49       	sbci	r20, 0x99	; 153
      e2:	30 01       	movw	r6, r0
      e4:	71 09       	sbc	r23, r1
      e6:	05 03       	mulsu	r16, r21
      e8:	36 49       	sbci	r19, 0x96	; 150
      ea:	49 49       	sbci	r20, 0x99	; 153
      ec:	36 06       	cpc	r3, r22
      ee:	49 49       	sbci	r20, 0x99	; 153
      f0:	29 1e       	adc	r2, r25
      f2:	00 36       	cpi	r16, 0x60	; 96
      f4:	36 00       	.word	0x0036	; ????
      f6:	00 00       	nop
      f8:	56 36       	cpi	r21, 0x66	; 102
      fa:	00 00       	nop
      fc:	00 08       	sbc	r0, r0
      fe:	14 22       	and	r1, r20
     100:	41 14       	cp	r4, r1
     102:	14 14       	cp	r1, r4
     104:	14 14       	cp	r1, r4
     106:	41 22       	and	r4, r17
     108:	14 08       	sbc	r1, r4
     10a:	00 02       	muls	r16, r16
     10c:	01 51       	subi	r16, 0x11	; 17
     10e:	09 06       	cpc	r0, r25
     110:	32 49       	sbci	r19, 0x92	; 146
     112:	79 41       	sbci	r23, 0x19	; 25
     114:	3e 7e       	andi	r19, 0xEE	; 238
     116:	11 11       	cpse	r17, r1
     118:	11 7e       	andi	r17, 0xE1	; 225
     11a:	7f 49       	sbci	r23, 0x9F	; 159
     11c:	49 49       	sbci	r20, 0x99	; 153
     11e:	36 3e       	cpi	r19, 0xE6	; 230
     120:	41 41       	sbci	r20, 0x11	; 17
     122:	41 22       	and	r4, r17
     124:	7f 41       	sbci	r23, 0x1F	; 31
     126:	41 22       	and	r4, r17
     128:	1c 7f       	andi	r17, 0xFC	; 252
     12a:	49 49       	sbci	r20, 0x99	; 153
     12c:	49 41       	sbci	r20, 0x19	; 25
     12e:	7f 09       	sbc	r23, r15
     130:	09 01       	movw	r0, r18
     132:	01 3e       	cpi	r16, 0xE1	; 225
     134:	41 41       	sbci	r20, 0x11	; 17
     136:	51 32       	cpi	r21, 0x21	; 33
     138:	7f 08       	sbc	r7, r15
     13a:	08 08       	sbc	r0, r8
     13c:	7f 00       	.word	0x007f	; ????
     13e:	41 7f       	andi	r20, 0xF1	; 241
     140:	41 00       	.word	0x0041	; ????
     142:	20 40       	sbci	r18, 0x00	; 0
     144:	41 3f       	cpi	r20, 0xF1	; 241
     146:	01 7f       	andi	r16, 0xF1	; 241
     148:	08 14       	cp	r0, r8
     14a:	22 41       	sbci	r18, 0x12	; 18
     14c:	7f 40       	sbci	r23, 0x0F	; 15
     14e:	40 40       	sbci	r20, 0x00	; 0
     150:	40 7f       	andi	r20, 0xF0	; 240
     152:	02 04       	cpc	r0, r2
     154:	02 7f       	andi	r16, 0xF2	; 242
     156:	7f 04       	cpc	r7, r15
     158:	08 10       	cpse	r0, r8
     15a:	7f 3e       	cpi	r23, 0xEF	; 239
     15c:	41 41       	sbci	r20, 0x11	; 17
     15e:	41 3e       	cpi	r20, 0xE1	; 225
     160:	7f 09       	sbc	r23, r15
     162:	09 09       	sbc	r16, r9
     164:	06 3e       	cpi	r16, 0xE6	; 230
     166:	41 51       	subi	r20, 0x11	; 17
     168:	21 5e       	subi	r18, 0xE1	; 225
     16a:	7f 09       	sbc	r23, r15
     16c:	19 29       	or	r17, r9
     16e:	46 46       	sbci	r20, 0x66	; 102
     170:	49 49       	sbci	r20, 0x99	; 153
     172:	49 31       	cpi	r20, 0x19	; 25
     174:	01 01       	movw	r0, r2
     176:	7f 01       	movw	r14, r30
     178:	01 3f       	cpi	r16, 0xF1	; 241
     17a:	40 40       	sbci	r20, 0x00	; 0
     17c:	40 3f       	cpi	r20, 0xF0	; 240
     17e:	1f 20       	and	r1, r15
     180:	40 20       	and	r4, r0
     182:	1f 7f       	andi	r17, 0xFF	; 255
     184:	20 18       	sub	r2, r0
     186:	20 7f       	andi	r18, 0xF0	; 240
     188:	63 14       	cp	r6, r3
     18a:	08 14       	cp	r0, r8
     18c:	63 03       	mulsu	r22, r19
     18e:	04 78       	andi	r16, 0x84	; 132
     190:	04 03       	mulsu	r16, r20
     192:	61 51       	subi	r22, 0x11	; 17
     194:	49 45       	sbci	r20, 0x59	; 89
     196:	43 00       	.word	0x0043	; ????
     198:	00 7f       	andi	r16, 0xF0	; 240
     19a:	41 41       	sbci	r20, 0x11	; 17
     19c:	02 04       	cpc	r0, r2
     19e:	08 10       	cpse	r0, r8
     1a0:	20 41       	sbci	r18, 0x10	; 16
     1a2:	41 7f       	andi	r20, 0xF1	; 241
     1a4:	00 00       	nop
     1a6:	04 02       	muls	r16, r20
     1a8:	01 02       	muls	r16, r17
     1aa:	04 40       	sbci	r16, 0x04	; 4
     1ac:	40 40       	sbci	r20, 0x00	; 0
     1ae:	40 40       	sbci	r20, 0x00	; 0
     1b0:	00 01       	movw	r0, r0
     1b2:	02 04       	cpc	r0, r2
     1b4:	00 20       	and	r0, r0
     1b6:	54 54       	subi	r21, 0x44	; 68
     1b8:	54 78       	andi	r21, 0x84	; 132
     1ba:	7f 48       	sbci	r23, 0x8F	; 143
     1bc:	44 44       	sbci	r20, 0x44	; 68
     1be:	38 38       	cpi	r19, 0x88	; 136
     1c0:	44 44       	sbci	r20, 0x44	; 68
     1c2:	44 20       	and	r4, r4
     1c4:	38 44       	sbci	r19, 0x48	; 72
     1c6:	44 48       	sbci	r20, 0x84	; 132
     1c8:	7f 38       	cpi	r23, 0x8F	; 143
     1ca:	54 54       	subi	r21, 0x44	; 68
     1cc:	54 18       	sub	r5, r4
     1ce:	08 7e       	andi	r16, 0xE8	; 232
     1d0:	09 01       	movw	r0, r18
     1d2:	02 08       	sbc	r0, r2
     1d4:	14 54       	subi	r17, 0x44	; 68
     1d6:	54 3c       	cpi	r21, 0xC4	; 196
     1d8:	7f 08       	sbc	r7, r15
     1da:	04 04       	cpc	r0, r4
     1dc:	78 00       	.word	0x0078	; ????
     1de:	44 7d       	andi	r20, 0xD4	; 212
     1e0:	40 00       	.word	0x0040	; ????
     1e2:	20 40       	sbci	r18, 0x00	; 0
     1e4:	44 3d       	cpi	r20, 0xD4	; 212
     1e6:	00 00       	nop
     1e8:	7f 10       	cpse	r7, r15
     1ea:	28 44       	sbci	r18, 0x48	; 72
     1ec:	00 41       	sbci	r16, 0x10	; 16
     1ee:	7f 40       	sbci	r23, 0x0F	; 15
     1f0:	00 7c       	andi	r16, 0xC0	; 192
     1f2:	04 18       	sub	r0, r4
     1f4:	04 78       	andi	r16, 0x84	; 132
     1f6:	7c 08       	sbc	r7, r12
     1f8:	04 04       	cpc	r0, r4
     1fa:	78 38       	cpi	r23, 0x88	; 136
     1fc:	44 44       	sbci	r20, 0x44	; 68
     1fe:	44 38       	cpi	r20, 0x84	; 132
     200:	7c 14       	cp	r7, r12
     202:	14 14       	cp	r1, r4
     204:	08 08       	sbc	r0, r8
     206:	14 14       	cp	r1, r4
     208:	18 7c       	andi	r17, 0xC8	; 200
     20a:	7c 08       	sbc	r7, r12
     20c:	04 04       	cpc	r0, r4
     20e:	08 48       	sbci	r16, 0x88	; 136
     210:	54 54       	subi	r21, 0x44	; 68
     212:	54 20       	and	r5, r4
     214:	04 3f       	cpi	r16, 0xF4	; 244
     216:	44 40       	sbci	r20, 0x04	; 4
     218:	20 3c       	cpi	r18, 0xC0	; 192
     21a:	40 40       	sbci	r20, 0x00	; 0
     21c:	20 7c       	andi	r18, 0xC0	; 192
     21e:	1c 20       	and	r1, r12
     220:	40 20       	and	r4, r0
     222:	1c 3c       	cpi	r17, 0xCC	; 204
     224:	40 30       	cpi	r20, 0x00	; 0
     226:	40 3c       	cpi	r20, 0xC0	; 192
     228:	44 28       	or	r4, r4
     22a:	10 28       	or	r1, r0
     22c:	44 0c       	add	r4, r4
     22e:	50 50       	subi	r21, 0x00	; 0
     230:	50 3c       	cpi	r21, 0xC0	; 192
     232:	44 64       	ori	r20, 0x44	; 68
     234:	54 4c       	sbci	r21, 0xC4	; 196
     236:	44 00       	.word	0x0044	; ????
     238:	08 36       	cpi	r16, 0x68	; 104
     23a:	41 00       	.word	0x0041	; ????
     23c:	00 00       	nop
     23e:	7f 00       	.word	0x007f	; ????
     240:	00 00       	nop
     242:	41 36       	cpi	r20, 0x61	; 97
     244:	08 00       	.word	0x0008	; ????
     246:	02 01       	movw	r0, r4
     248:	03 02       	muls	r16, r19
     24a:	01 7e       	andi	r16, 0xE1	; 225
     24c:	11 7f       	andi	r17, 0xF1	; 241
     24e:	51 51       	subi	r21, 0x11	; 17
     250:	24 54       	subi	r18, 0x44	; 68
     252:	78 54       	subi	r23, 0x48	; 72
     254:	58 10       	cpse	r5, r8
     256:	27 20       	and	r2, r7
     258:	27 10       	cpse	r2, r7

0000025a <__ctors_end>:
     25a:	11 24       	eor	r1, r1
     25c:	1f be       	out	0x3f, r1	; 63
     25e:	cf ef       	ldi	r28, 0xFF	; 255
     260:	d4 e0       	ldi	r29, 0x04	; 4
     262:	de bf       	out	0x3e, r29	; 62
     264:	cd bf       	out	0x3d, r28	; 61

00000266 <__do_copy_data>:
     266:	12 e0       	ldi	r17, 0x02	; 2
     268:	a0 e0       	ldi	r26, 0x00	; 0
     26a:	b1 e0       	ldi	r27, 0x01	; 1
     26c:	e6 e5       	ldi	r30, 0x56	; 86
     26e:	f7 e1       	ldi	r31, 0x17	; 23
     270:	02 c0       	rjmp	.+4      	; 0x276 <__do_copy_data+0x10>
     272:	05 90       	lpm	r0, Z+
     274:	0d 92       	st	X+, r0
     276:	aa 32       	cpi	r26, 0x2A	; 42
     278:	b1 07       	cpc	r27, r17
     27a:	d9 f7       	brne	.-10     	; 0x272 <__do_copy_data+0xc>

0000027c <__do_clear_bss>:
     27c:	22 e0       	ldi	r18, 0x02	; 2
     27e:	aa e2       	ldi	r26, 0x2A	; 42
     280:	b2 e0       	ldi	r27, 0x02	; 2
     282:	01 c0       	rjmp	.+2      	; 0x286 <.do_clear_bss_start>

00000284 <.do_clear_bss_loop>:
     284:	1d 92       	st	X+, r1

00000286 <.do_clear_bss_start>:
     286:	a2 34       	cpi	r26, 0x42	; 66
     288:	b2 07       	cpc	r27, r18
     28a:	e1 f7       	brne	.-8      	; 0x284 <.do_clear_bss_loop>
     28c:	0e 94 a9 03 	call	0x752	; 0x752 <main>
     290:	0c 94 a9 0b 	jmp	0x1752	; 0x1752 <_exit>

00000294 <__bad_interrupt>:
     294:	0c 94 00 00 	jmp	0	; 0x0 <__vectors>

00000298 <can_init>:
 #define set_bit( reg, bit ) (reg |= (1 << bit))
 #define clear_bit( reg, bit ) (reg &= ~(1 << bit))


 void can_init(){
	mcp2515_init(); //denne kaller på reset, som setter systemet i config mode
     298:	0e 94 6c 02 	call	0x4d8	; 0x4d8 <mcp2515_init>
	
	
	//aktiverer interrupts (interrupt enable) for transmit og receive buffers, s.51
	mcp2515_bit_modify(MCP_CANINTE, 0b00000011, 0b00000011); 
     29c:	43 e0       	ldi	r20, 0x03	; 3
     29e:	63 e0       	ldi	r22, 0x03	; 3
     2a0:	8b e2       	ldi	r24, 0x2B	; 43
     2a2:	0e 94 90 02 	call	0x520	; 0x520 <mcp2515_bit_modify>
	
	//Setter alle maske-bitene i standard identifier til 0, fordi da slippes alle messages gjennom. s. 35 (register 4-14 til 4-17), og s. 32, table 4-2
	mcp2515_write(MCP_RXM0SIDH, 0b00000000);
     2a6:	60 e0       	ldi	r22, 0x00	; 0
     2a8:	80 e2       	ldi	r24, 0x20	; 32
     2aa:	0e 94 54 02 	call	0x4a8	; 0x4a8 <mcp2515_write>
	mcp2515_write(MCP_RXM0SIDL, 0b00000000);
     2ae:	60 e0       	ldi	r22, 0x00	; 0
     2b0:	81 e2       	ldi	r24, 0x21	; 33
     2b2:	0e 94 54 02 	call	0x4a8	; 0x4a8 <mcp2515_write>
	mcp2515_write(MCP_RXM1SIDH, 0b00000000);
     2b6:	60 e0       	ldi	r22, 0x00	; 0
     2b8:	84 e2       	ldi	r24, 0x24	; 36
     2ba:	0e 94 54 02 	call	0x4a8	; 0x4a8 <mcp2515_write>
	mcp2515_write(MCP_RXM1SIDL, 0b00000000);
     2be:	60 e0       	ldi	r22, 0x00	; 0
     2c0:	85 e2       	ldi	r24, 0x25	; 37
     2c2:	0e 94 54 02 	call	0x4a8	; 0x4a8 <mcp2515_write>
	
	//setter i loopback mode, s. 60
	mcp2515_bit_modify(MCP_CANCTRL, 0b11100000, 0b01000000);
     2c6:	40 e4       	ldi	r20, 0x40	; 64
     2c8:	60 ee       	ldi	r22, 0xE0	; 224
     2ca:	8f e0       	ldi	r24, 0x0F	; 15
     2cc:	0e 94 90 02 	call	0x520	; 0x520 <mcp2515_bit_modify>
     2d0:	08 95       	ret

000002d2 <can_send_message>:
 }

void can_send_message(can_msg* send){//unsigned int identifier, uint8_t *message, uint8_t lengthOfData
     2d2:	ef 92       	push	r14
     2d4:	ff 92       	push	r15
     2d6:	0f 93       	push	r16
     2d8:	1f 93       	push	r17
     2da:	cf 93       	push	r28
     2dc:	df 93       	push	r29
     2de:	7c 01       	movw	r14, r24
	
	while((mcp2515_read(MCP_TXB0CTRL) & MCP_TXREQ)){ //så lenge transfer buffer 0 er fullt, vil MCP_TXREQ være høy, og vi er stuck i whilen. Når det er tomt, vil vi gå ut av whilen
     2e0:	80 e3       	ldi	r24, 0x30	; 48
     2e2:	0e 94 46 02 	call	0x48c	; 0x48c <mcp2515_read>
     2e6:	83 fd       	sbrc	r24, 3
     2e8:	fb cf       	rjmp	.-10     	; 0x2e0 <can_send_message+0xe>
	}
	
	//Left shifter 5 ganger for å lagre riktig i SID bufferregistrene
	mcp2515_write(MCP_TXB0SIDH+1, send->id<<5); //lagrer identifieren til messagen inn i første transferbuffer. Går fint å overskrive det som ligger der fordi det er 0 som må ligge der for standard identifier (ikke extended)
     2ea:	f7 01       	movw	r30, r14
     2ec:	60 81       	ld	r22, Z
     2ee:	62 95       	swap	r22
     2f0:	66 0f       	add	r22, r22
     2f2:	60 7e       	andi	r22, 0xE0	; 224
     2f4:	82 e3       	ldi	r24, 0x32	; 50
     2f6:	0e 94 54 02 	call	0x4a8	; 0x4a8 <mcp2515_write>
	
	 //Right shift 3 ganger for å flytte de 8 høyeste bit'ene til de 8 laveste, så de lagres i SIDH
	mcp2515_write(MCP_TXB0SIDH, send->id>>3); //lagrer identifieren til messagen inn i første transferbuffer
     2fa:	f7 01       	movw	r30, r14
     2fc:	60 81       	ld	r22, Z
     2fe:	71 81       	ldd	r23, Z+1	; 0x01
     300:	76 95       	lsr	r23
     302:	67 95       	ror	r22
     304:	76 95       	lsr	r23
     306:	67 95       	ror	r22
     308:	76 95       	lsr	r23
     30a:	67 95       	ror	r22
     30c:	81 e3       	ldi	r24, 0x31	; 49
     30e:	0e 94 54 02 	call	0x4a8	; 0x4a8 <mcp2515_write>
	
	mcp2515_write(MCP_TXB0SIDH+4, send->length); //lagrer datalengden i txb0dlc. plusser på 4 for å komme til txb0dlc (se tabell s. 63)
     312:	f7 01       	movw	r30, r14
     314:	62 85       	ldd	r22, Z+10	; 0x0a
     316:	85 e3       	ldi	r24, 0x35	; 53
     318:	0e 94 54 02 	call	0x4a8	; 0x4a8 <mcp2515_write>

	//lagrer nå meldinga i TXB0D0-TXB0D6 (s. 63)
	if(send->length>8){
     31c:	f7 01       	movw	r30, r14
     31e:	82 85       	ldd	r24, Z+10	; 0x0a
     320:	89 30       	cpi	r24, 0x09	; 9
     322:	18 f4       	brcc	.+6      	; 0x32a <can_send_message+0x58>
		printf("Length of data too big.");
		return;
	}
	int byte = 0;
	for (byte = 0; byte < send->length; byte++){
     324:	81 11       	cpse	r24, r1
     326:	0a c0       	rjmp	.+20     	; 0x33c <can_send_message+0x6a>
     328:	1c c0       	rjmp	.+56     	; 0x362 <can_send_message+0x90>
	
	mcp2515_write(MCP_TXB0SIDH+4, send->length); //lagrer datalengden i txb0dlc. plusser på 4 for å komme til txb0dlc (se tabell s. 63)

	//lagrer nå meldinga i TXB0D0-TXB0D6 (s. 63)
	if(send->length>8){
		printf("Length of data too big.");
     32a:	86 e0       	ldi	r24, 0x06	; 6
     32c:	91 e0       	ldi	r25, 0x01	; 1
     32e:	9f 93       	push	r25
     330:	8f 93       	push	r24
     332:	0e 94 96 08 	call	0x112c	; 0x112c <printf>
		return;
     336:	0f 90       	pop	r0
     338:	0f 90       	pop	r0
     33a:	17 c0       	rjmp	.+46     	; 0x36a <can_send_message+0x98>
     33c:	87 01       	movw	r16, r14
     33e:	0e 5f       	subi	r16, 0xFE	; 254
     340:	1f 4f       	sbci	r17, 0xFF	; 255
	}
	int byte = 0;
	for (byte = 0; byte < send->length; byte++){
     342:	c0 e0       	ldi	r28, 0x00	; 0
     344:	d0 e0       	ldi	r29, 0x00	; 0
		mcp2515_write(MCP_TXB0SIDH+5+byte, send->data[byte]);
     346:	f8 01       	movw	r30, r16
     348:	61 91       	ld	r22, Z+
     34a:	8f 01       	movw	r16, r30
     34c:	8c 2f       	mov	r24, r28
     34e:	8a 5c       	subi	r24, 0xCA	; 202
     350:	0e 94 54 02 	call	0x4a8	; 0x4a8 <mcp2515_write>
	if(send->length>8){
		printf("Length of data too big.");
		return;
	}
	int byte = 0;
	for (byte = 0; byte < send->length; byte++){
     354:	21 96       	adiw	r28, 0x01	; 1
     356:	f7 01       	movw	r30, r14
     358:	22 85       	ldd	r18, Z+10	; 0x0a
     35a:	30 e0       	ldi	r19, 0x00	; 0
     35c:	c2 17       	cp	r28, r18
     35e:	d3 07       	cpc	r29, r19
     360:	94 f3       	brlt	.-28     	; 0x346 <can_send_message+0x74>
		mcp2515_write(MCP_TXB0SIDH+5+byte, send->data[byte]);
	}

	mcp2515_request_to_send(0); //sender RTS signal til TXB0 nå
     362:	80 e0       	ldi	r24, 0x00	; 0
     364:	90 e0       	ldi	r25, 0x00	; 0
     366:	0e 94 7e 02 	call	0x4fc	; 0x4fc <mcp2515_request_to_send>
}
     36a:	df 91       	pop	r29
     36c:	cf 91       	pop	r28
     36e:	1f 91       	pop	r17
     370:	0f 91       	pop	r16
     372:	ff 90       	pop	r15
     374:	ef 90       	pop	r14
     376:	08 95       	ret

00000378 <can_receive_message>:

can_msg can_receive_message(){
     378:	8f 92       	push	r8
     37a:	9f 92       	push	r9
     37c:	af 92       	push	r10
     37e:	bf 92       	push	r11
     380:	cf 92       	push	r12
     382:	df 92       	push	r13
     384:	ef 92       	push	r14
     386:	ff 92       	push	r15
     388:	0f 93       	push	r16
     38a:	1f 93       	push	r17
     38c:	cf 93       	push	r28
     38e:	df 93       	push	r29
     390:	cd b7       	in	r28, 0x3d	; 61
     392:	de b7       	in	r29, 0x3e	; 62
     394:	2b 97       	sbiw	r28, 0x0b	; 11
     396:	0f b6       	in	r0, 0x3f	; 63
     398:	f8 94       	cli
     39a:	de bf       	out	0x3e, r29	; 62
     39c:	0f be       	out	0x3f, r0	; 63
     39e:	cd bf       	out	0x3d, r28	; 61
     3a0:	7c 01       	movw	r14, r24
	can_msg wholeMessage;
	wholeMessage.id = 0;
	wholeMessage.length = 0;
	wholeMessage.data[0] = 0b00000000;
     3a2:	1b 82       	std	Y+3, r1	; 0x03
	
	if (mcp2515_read(MCP_CANINTF) & MCP_RX0IF){ //om rx0if er høy, altså interrupt pinnen er høy, betyr det at receive buffer nr 0 har fått inn ny data
     3a4:	8c e2       	ldi	r24, 0x2C	; 44
     3a6:	0e 94 46 02 	call	0x48c	; 0x48c <mcp2515_read>
     3aa:	80 ff       	sbrs	r24, 0
     3ac:	4d c0       	rjmp	.+154    	; 0x448 <can_receive_message+0xd0>
		unsigned int idH = mcp2515_read(MCP_RXB0SIDH);
     3ae:	81 e6       	ldi	r24, 0x61	; 97
     3b0:	0e 94 46 02 	call	0x48c	; 0x48c <mcp2515_read>
     3b4:	08 2f       	mov	r16, r24
     3b6:	10 e0       	ldi	r17, 0x00	; 0
		unsigned int idL = mcp2515_read(MCP_RXB0SIDH+1);
     3b8:	82 e6       	ldi	r24, 0x62	; 98
     3ba:	0e 94 46 02 	call	0x48c	; 0x48c <mcp2515_read>
     3be:	90 e0       	ldi	r25, 0x00	; 0
		idL = (idL >> 5); //Fordi de er idL er tre MSB i MCP_RXB0SIDL, må rightshifte 5 ganger
		idH = (idH << 3); //Må leftshifte 
     3c0:	58 01       	movw	r10, r16
     3c2:	aa 0c       	add	r10, r10
     3c4:	bb 1c       	adc	r11, r11
     3c6:	aa 0c       	add	r10, r10
     3c8:	bb 1c       	adc	r11, r11
     3ca:	aa 0c       	add	r10, r10
     3cc:	bb 1c       	adc	r11, r11
	wholeMessage.data[0] = 0b00000000;
	
	if (mcp2515_read(MCP_CANINTF) & MCP_RX0IF){ //om rx0if er høy, altså interrupt pinnen er høy, betyr det at receive buffer nr 0 har fått inn ny data
		unsigned int idH = mcp2515_read(MCP_RXB0SIDH);
		unsigned int idL = mcp2515_read(MCP_RXB0SIDH+1);
		idL = (idL >> 5); //Fordi de er idL er tre MSB i MCP_RXB0SIDL, må rightshifte 5 ganger
     3ce:	96 95       	lsr	r25
     3d0:	87 95       	ror	r24
     3d2:	92 95       	swap	r25
     3d4:	82 95       	swap	r24
     3d6:	8f 70       	andi	r24, 0x0F	; 15
     3d8:	89 27       	eor	r24, r25
     3da:	9f 70       	andi	r25, 0x0F	; 15
     3dc:	89 27       	eor	r24, r25
		idH = (idH << 3); //Må leftshifte 
		unsigned int id = (idH | idL); //Kan evt ta +
     3de:	a8 2a       	or	r10, r24
     3e0:	b9 2a       	or	r11, r25
		
		
		uint8_t length = mcp2515_read(MCP_RXB0SIDH+4); //leser av rxb0dlc
     3e2:	85 e6       	ldi	r24, 0x65	; 101
     3e4:	0e 94 46 02 	call	0x48c	; 0x48c <mcp2515_read>
     3e8:	88 2e       	mov	r8, r24
		if (length > 8){
     3ea:	88 e0       	ldi	r24, 0x08	; 8
     3ec:	88 15       	cp	r24, r8
     3ee:	18 f0       	brcs	.+6      	; 0x3f6 <can_receive_message+0x7e>
		}
		
		//leser nå av rxb0d0 til rxb0d7 (avhengig av hvor lang meldinga vi har mottatt er), og lagrer det i arrayet message
		int byte = 0;
		//lagrer alt i en struct
		for (byte = 0; byte < length; byte++){
     3f0:	81 10       	cpse	r8, r1
     3f2:	15 c0       	rjmp	.+42     	; 0x41e <can_receive_message+0xa6>
     3f4:	2c c0       	rjmp	.+88     	; 0x44e <can_receive_message+0xd6>
		unsigned int id = (idH | idL); //Kan evt ta +
		
		
		uint8_t length = mcp2515_read(MCP_RXB0SIDH+4); //leser av rxb0dlc
		if (length > 8){
			printf("Length > 8, not allowed.");
     3f6:	8e e1       	ldi	r24, 0x1E	; 30
     3f8:	91 e0       	ldi	r25, 0x01	; 1
     3fa:	9f 93       	push	r25
     3fc:	8f 93       	push	r24
     3fe:	0e 94 96 08 	call	0x112c	; 0x112c <printf>
			return wholeMessage;
     402:	1a 82       	std	Y+2, r1	; 0x02
     404:	19 82       	std	Y+1, r1	; 0x01
     406:	1b 86       	std	Y+11, r1	; 0x0b
     408:	8b e0       	ldi	r24, 0x0B	; 11
     40a:	fe 01       	movw	r30, r28
     40c:	31 96       	adiw	r30, 0x01	; 1
     40e:	d7 01       	movw	r26, r14
     410:	01 90       	ld	r0, Z+
     412:	0d 92       	st	X+, r0
     414:	8a 95       	dec	r24
     416:	e1 f7       	brne	.-8      	; 0x410 <can_receive_message+0x98>
     418:	0f 90       	pop	r0
     41a:	0f 90       	pop	r0
     41c:	23 c0       	rjmp	.+70     	; 0x464 <can_receive_message+0xec>
     41e:	8e 01       	movw	r16, r28
     420:	0d 5f       	subi	r16, 0xFD	; 253
     422:	1f 4f       	sbci	r17, 0xFF	; 255
     424:	68 01       	movw	r12, r16
     426:	c8 0c       	add	r12, r8
     428:	d1 1c       	adc	r13, r1
		}
		
		//leser nå av rxb0d0 til rxb0d7 (avhengig av hvor lang meldinga vi har mottatt er), og lagrer det i arrayet message
		int byte = 0;
		//lagrer alt i en struct
		for (byte = 0; byte < length; byte++){
     42a:	0f 2e       	mov	r0, r31
     42c:	f6 e6       	ldi	r31, 0x66	; 102
     42e:	9f 2e       	mov	r9, r31
     430:	f0 2d       	mov	r31, r0
			wholeMessage.data[byte] = mcp2515_read(MCP_RXB0SIDH+5+byte);
     432:	89 2d       	mov	r24, r9
     434:	0e 94 46 02 	call	0x48c	; 0x48c <mcp2515_read>
     438:	f8 01       	movw	r30, r16
     43a:	81 93       	st	Z+, r24
     43c:	8f 01       	movw	r16, r30
     43e:	93 94       	inc	r9
		}
		
		//leser nå av rxb0d0 til rxb0d7 (avhengig av hvor lang meldinga vi har mottatt er), og lagrer det i arrayet message
		int byte = 0;
		//lagrer alt i en struct
		for (byte = 0; byte < length; byte++){
     440:	ec 15       	cp	r30, r12
     442:	fd 05       	cpc	r31, r13
     444:	b1 f7       	brne	.-20     	; 0x432 <can_receive_message+0xba>
     446:	03 c0       	rjmp	.+6      	; 0x44e <can_receive_message+0xd6>
}

can_msg can_receive_message(){
	can_msg wholeMessage;
	wholeMessage.id = 0;
	wholeMessage.length = 0;
     448:	81 2c       	mov	r8, r1
	mcp2515_request_to_send(0); //sender RTS signal til TXB0 nå
}

can_msg can_receive_message(){
	can_msg wholeMessage;
	wholeMessage.id = 0;
     44a:	a1 2c       	mov	r10, r1
     44c:	b1 2c       	mov	r11, r1
		
		
		wholeMessage.id = id;
		wholeMessage.length = length;
	}
	return wholeMessage;
     44e:	ba 82       	std	Y+2, r11	; 0x02
     450:	a9 82       	std	Y+1, r10	; 0x01
     452:	8b 86       	std	Y+11, r8	; 0x0b
     454:	8b e0       	ldi	r24, 0x0B	; 11
     456:	fe 01       	movw	r30, r28
     458:	31 96       	adiw	r30, 0x01	; 1
     45a:	d7 01       	movw	r26, r14
     45c:	01 90       	ld	r0, Z+
     45e:	0d 92       	st	X+, r0
     460:	8a 95       	dec	r24
     462:	e1 f7       	brne	.-8      	; 0x45c <can_receive_message+0xe4>
}
     464:	c7 01       	movw	r24, r14
     466:	2b 96       	adiw	r28, 0x0b	; 11
     468:	0f b6       	in	r0, 0x3f	; 63
     46a:	f8 94       	cli
     46c:	de bf       	out	0x3e, r29	; 62
     46e:	0f be       	out	0x3f, r0	; 63
     470:	cd bf       	out	0x3d, r28	; 61
     472:	df 91       	pop	r29
     474:	cf 91       	pop	r28
     476:	1f 91       	pop	r17
     478:	0f 91       	pop	r16
     47a:	ff 90       	pop	r15
     47c:	ef 90       	pop	r14
     47e:	df 90       	pop	r13
     480:	cf 90       	pop	r12
     482:	bf 90       	pop	r11
     484:	af 90       	pop	r10
     486:	9f 90       	pop	r9
     488:	8f 90       	pop	r8
     48a:	08 95       	ret

0000048c <mcp2515_read>:
#include "spi.h"

#define set_bit( reg, bit ) (reg |= (1 << bit))
#define clear_bit( reg, bit ) (reg &= ~(1 << bit))

uint8_t mcp2515_read(uint8_t address){
     48c:	cf 93       	push	r28
     48e:	c8 2f       	mov	r28, r24
	clear_bit(PORTB, SS); //Setter SS lav
     490:	c4 98       	cbi	0x18, 4	; 24

	uint8_t result;
	spi_MasterTransmit(MCP_READ);
     492:	83 e0       	ldi	r24, 0x03	; 3
     494:	0e 94 b1 02 	call	0x562	; 0x562 <spi_MasterTransmit>
	spi_MasterTransmit(address);
     498:	8c 2f       	mov	r24, r28
     49a:	0e 94 b1 02 	call	0x562	; 0x562 <spi_MasterTransmit>
	result = spi_MasterRead(); //Leser hva som var i adressen/registeret vi aksesserte
     49e:	0e 94 b5 02 	call	0x56a	; 0x56a <spi_MasterRead>

	set_bit(PORTB, SS); //Setter SS høy
     4a2:	c4 9a       	sbi	0x18, 4	; 24
	
	return result;
}
     4a4:	cf 91       	pop	r28
     4a6:	08 95       	ret

000004a8 <mcp2515_write>:

void mcp2515_write(uint8_t address, uint8_t data){
     4a8:	cf 93       	push	r28
     4aa:	df 93       	push	r29
     4ac:	d8 2f       	mov	r29, r24
     4ae:	c6 2f       	mov	r28, r22
	clear_bit(PORTB,SS); //Setter SS lav
     4b0:	c4 98       	cbi	0x18, 4	; 24
	
	spi_MasterTransmit(MCP_WRITE); //Velger instruction
     4b2:	82 e0       	ldi	r24, 0x02	; 2
     4b4:	0e 94 b1 02 	call	0x562	; 0x562 <spi_MasterTransmit>
	
	spi_MasterTransmit(address); //Velger adresse, f.eks. 0b00110001
     4b8:	8d 2f       	mov	r24, r29
     4ba:	0e 94 b1 02 	call	0x562	; 0x562 <spi_MasterTransmit>
	
	spi_MasterTransmit(data); //Velger data som sendes
     4be:	8c 2f       	mov	r24, r28
     4c0:	0e 94 b1 02 	call	0x562	; 0x562 <spi_MasterTransmit>

	set_bit(PORTB,SS);
     4c4:	c4 9a       	sbi	0x18, 4	; 24
}
     4c6:	df 91       	pop	r29
     4c8:	cf 91       	pop	r28
     4ca:	08 95       	ret

000004cc <mcp2515_reset>:

void mcp2515_reset(){
	clear_bit(PORTB,SS); //Setter SS lav
     4cc:	c4 98       	cbi	0x18, 4	; 24
	spi_MasterTransmit(MCP_RESET);
     4ce:	80 ec       	ldi	r24, 0xC0	; 192
     4d0:	0e 94 b1 02 	call	0x562	; 0x562 <spi_MasterTransmit>
	set_bit(PORTB,SS); //Setter SS høy
     4d4:	c4 9a       	sbi	0x18, 4	; 24
     4d6:	08 95       	ret

000004d8 <mcp2515_init>:
}

uint8_t mcp2515_init(){
	uint8_t value;
	spi_init(); //Initialize SPI
     4d8:	0e 94 a8 02 	call	0x550	; 0x550 <spi_init>
	mcp2515_reset(); // Send reset-command
     4dc:	0e 94 66 02 	call	0x4cc	; 0x4cc <mcp2515_reset>
	#else
		//round up by default
		__ticks_dc = (uint32_t)(ceil(fabs(__tmp)));
	#endif

	__builtin_avr_delay_cycles(__ticks_dc);
     4e0:	8d e0       	ldi	r24, 0x0D	; 13
     4e2:	8a 95       	dec	r24
     4e4:	f1 f7       	brne	.-4      	; 0x4e2 <mcp2515_init+0xa>
     4e6:	00 00       	nop
	_delay_us(8); //oscillatoren er i reset modus i 128 klokkesykluser. trenger derav en delay
	
	//Self-test to check if system is in config mode
	value = mcp2515_read(MCP_CANSTAT); 
     4e8:	8e e0       	ldi	r24, 0x0E	; 14
     4ea:	0e 94 46 02 	call	0x48c	; 0x48c <mcp2515_read>
	if((value & MODE_MASK)  != MODE_CONFIG) {
     4ee:	98 2f       	mov	r25, r24
     4f0:	90 7e       	andi	r25, 0xE0	; 224
     4f2:	81 e0       	ldi	r24, 0x01	; 1
     4f4:	90 38       	cpi	r25, 0x80	; 128
     4f6:	09 f4       	brne	.+2      	; 0x4fa <mcp2515_init+0x22>
     4f8:	80 e0       	ldi	r24, 0x00	; 0
		return 1;
	}
	// More initialization
	return 0;
}
     4fa:	08 95       	ret

000004fc <mcp2515_request_to_send>:

void mcp2515_request_to_send(int whichBuffer){ //se s. 66
	clear_bit(PORTB,SS); //Setter SS lav
     4fc:	c4 98       	cbi	0x18, 4	; 24

	if(whichBuffer == 0){ //choose TXB0
     4fe:	00 97       	sbiw	r24, 0x00	; 0
     500:	21 f4       	brne	.+8      	; 0x50a <__stack+0xb>
		spi_MasterTransmit(0b10000001); 
     502:	81 e8       	ldi	r24, 0x81	; 129
     504:	0e 94 b1 02 	call	0x562	; 0x562 <spi_MasterTransmit>
     508:	09 c0       	rjmp	.+18     	; 0x51c <__stack+0x1d>
	}
	
	else if (whichBuffer == 1){ //choose TXB1
     50a:	01 97       	sbiw	r24, 0x01	; 1
     50c:	21 f4       	brne	.+8      	; 0x516 <__stack+0x17>
		spi_MasterTransmit(0b10000010); 
     50e:	82 e8       	ldi	r24, 0x82	; 130
     510:	0e 94 b1 02 	call	0x562	; 0x562 <spi_MasterTransmit>
     514:	03 c0       	rjmp	.+6      	; 0x51c <__stack+0x1d>
	}
	else{ //choose TXB2
		spi_MasterTransmit(0b10000100);
     516:	84 e8       	ldi	r24, 0x84	; 132
     518:	0e 94 b1 02 	call	0x562	; 0x562 <spi_MasterTransmit>
	}
	
	set_bit(PORTB,SS); //Setter SS høy
     51c:	c4 9a       	sbi	0x18, 4	; 24
     51e:	08 95       	ret

00000520 <mcp2515_bit_modify>:

	return statusRegister;
}


void mcp2515_bit_modify(uint8_t regAdr, uint8_t maskBits, uint8_t data){ //se s. 68
     520:	1f 93       	push	r17
     522:	cf 93       	push	r28
     524:	df 93       	push	r29
     526:	18 2f       	mov	r17, r24
     528:	d6 2f       	mov	r29, r22
     52a:	c4 2f       	mov	r28, r20
	clear_bit(PORTB,SS); //Setter SS lav
     52c:	c4 98       	cbi	0x18, 4	; 24

	spi_MasterTransmit(MCP_BITMOD);
     52e:	85 e0       	ldi	r24, 0x05	; 5
     530:	0e 94 b1 02 	call	0x562	; 0x562 <spi_MasterTransmit>
	spi_MasterTransmit(regAdr);
     534:	81 2f       	mov	r24, r17
     536:	0e 94 b1 02 	call	0x562	; 0x562 <spi_MasterTransmit>
	spi_MasterTransmit(maskBits);
     53a:	8d 2f       	mov	r24, r29
     53c:	0e 94 b1 02 	call	0x562	; 0x562 <spi_MasterTransmit>
	spi_MasterTransmit(data);
     540:	8c 2f       	mov	r24, r28
     542:	0e 94 b1 02 	call	0x562	; 0x562 <spi_MasterTransmit>

	set_bit(PORTB,SS); //Setter SS høy
     546:	c4 9a       	sbi	0x18, 4	; 24
}
     548:	df 91       	pop	r29
     54a:	cf 91       	pop	r28
     54c:	1f 91       	pop	r17
     54e:	08 95       	ret

00000550 <spi_init>:
 #define set_bit( reg, bit ) (reg |= (1 << bit))
 #define clear_bit( reg, bit ) (reg &= ~(1 << bit))

void spi_init(void){
    /* Set MOSI and SCK output, all others input */
    DDRB |= (1<<MOSI)|(1<<SCK);
     550:	87 b3       	in	r24, 0x17	; 23
     552:	80 6a       	ori	r24, 0xA0	; 160
     554:	87 bb       	out	0x17, r24	; 23
	DDRB &= ~(1 << MISO);
     556:	be 98       	cbi	0x17, 6	; 23
    /* Enable SPI, Master, set clock rate fck/2 */
    SPCR = (1<<SPE)|(1<<MSTR)|(1<<SPI2X);
     558:	81 e5       	ldi	r24, 0x51	; 81
     55a:	8d b9       	out	0x0d, r24	; 13
	
	set_bit(DDRB,SS); //Setter PB4 til write/output
     55c:	bc 9a       	sbi	0x17, 4	; 23
	set_bit(PORTB, SS);
     55e:	c4 9a       	sbi	0x18, 4	; 24
     560:	08 95       	ret

00000562 <spi_MasterTransmit>:

//Med denne må vi sette SS lav/høy før/etter mastertransmit starter/slutter
void spi_MasterTransmit(char cData) { //keepLow holds the SS* signal low so the transmission continues
	
	/* Start transmission */
	SPDR = cData;
     562:	8f b9       	out	0x0f, r24	; 15
	/* Wait for transmission complete. Interrupt flag in SPSR is set (SPIF). */
	while(!(SPSR & (1<<SPIF)));
     564:	77 9b       	sbis	0x0e, 7	; 14
     566:	fe cf       	rjmp	.-4      	; 0x564 <spi_MasterTransmit+0x2>
}
     568:	08 95       	ret

0000056a <spi_MasterRead>:

//Egentlig ikke nødvendig med denne funksjonen, fordi MasterTransmit gjør det samme, men vi beholder den for lesbarhet av koden
uint8_t spi_MasterRead(){
	//Setter SS lav utenfor funksjonen, altså setter vi SS lav inni mcp2515_read

	spi_MasterTransmit(0x00);
     56a:	80 e0       	ldi	r24, 0x00	; 0
     56c:	0e 94 b1 02 	call	0x562	; 0x562 <spi_MasterTransmit>
	
	//Setter SS høy utenfor funksjonen, altså setter vi SS høy igjen inni mcp2515_read

	return SPDR;
     570:	8f b1       	in	r24, 0x0f	; 15
	
}
     572:	08 95       	ret

00000574 <USART_Transmit>:
 }
 
 void USART_Transmit( unsigned char data )
 {
	 /* Wait for empty transmit buffer */
	 while( !( UCSR0A & (1<<UDRE0)) );
     574:	5d 9b       	sbis	0x0b, 5	; 11
     576:	fe cf       	rjmp	.-4      	; 0x574 <USART_Transmit>
	 
	 /* Put data into buffer, sends the data */
	 UDR0 = data;
     578:	8c b9       	out	0x0c, r24	; 12
     57a:	08 95       	ret

0000057c <USART_Receive>:
 }

 unsigned char USART_Receive( void )
 {
	 /*Wait for data to be received*/
	 while( !(UCSR0A & (1<<RXC0)) );
     57c:	5f 9b       	sbis	0x0b, 7	; 11
     57e:	fe cf       	rjmp	.-4      	; 0x57c <USART_Receive>
	 
	 /* Get and return received data from buffer*/
	 return UDR0;
     580:	8c b1       	in	r24, 0x0c	; 12
 }
     582:	08 95       	ret

00000584 <USART_Init>:


void USART_Init( unsigned int ubrr )
 {
	 /* Set baud rate */
	 UBRR0H = (unsigned char)(ubrr>>8);
     584:	90 bd       	out	0x20, r25	; 32
	 UBRR0L = (unsigned char)ubrr;
     586:	89 b9       	out	0x09, r24	; 9

	 /* Enable receiver and transmitter*/
	 UCSR0B = (1<<RXEN0)|(1<<TXEN0);
     588:	88 e1       	ldi	r24, 0x18	; 24
     58a:	8a b9       	out	0x0a, r24	; 10
	 
	 fdevopen(*USART_Transmit, *USART_Receive);
     58c:	6e eb       	ldi	r22, 0xBE	; 190
     58e:	72 e0       	ldi	r23, 0x02	; 2
     590:	8a eb       	ldi	r24, 0xBA	; 186
     592:	92 e0       	ldi	r25, 0x02	; 2
     594:	0e 94 4b 08 	call	0x1096	; 0x1096 <fdevopen>
     598:	08 95       	ret

0000059a <adc_init>:
     59a:	30 98       	cbi	0x06, 0	; 6
     59c:	08 95       	ret

0000059e <adc_read>:
     59e:	8c 5f       	subi	r24, 0xFC	; 252
     5a0:	80 93 00 14 	sts	0x1400, r24
     5a4:	82 e5       	ldi	r24, 0x52	; 82
     5a6:	8a 95       	dec	r24
     5a8:	f1 f7       	brne	.-4      	; 0x5a6 <adc_read+0x8>
     5aa:	80 91 00 14 	lds	r24, 0x1400
     5ae:	08 95       	ret

000005b0 <avr_init>:
     5b0:	b8 98       	cbi	0x17, 0	; 23
     5b2:	b9 98       	cbi	0x17, 1	; 23
     5b4:	ba 98       	cbi	0x17, 2	; 23
     5b6:	c2 9a       	sbi	0x18, 2	; 24
     5b8:	f8 94       	cli
     5ba:	86 b7       	in	r24, 0x36	; 54
     5bc:	8e 7f       	andi	r24, 0xFE	; 254
     5be:	86 bf       	out	0x36, r24	; 54
     5c0:	8b b7       	in	r24, 0x3b	; 59
     5c2:	80 62       	ori	r24, 0x20	; 32
     5c4:	8b bf       	out	0x3b, r24	; 59
     5c6:	78 94       	sei
     5c8:	08 95       	ret

000005ca <extMem_init>:
     5ca:	85 b7       	in	r24, 0x35	; 53
     5cc:	80 68       	ori	r24, 0x80	; 128
     5ce:	85 bf       	out	0x35, r24	; 53
     5d0:	80 b7       	in	r24, 0x30	; 48
     5d2:	80 62       	ori	r24, 0x20	; 32
     5d4:	80 bf       	out	0x30, r24	; 48
     5d6:	08 95       	ret

000005d8 <joy_getDirectionX>:
     5d8:	9c 01       	movw	r18, r24
     5da:	2d 51       	subi	r18, 0x1D	; 29
     5dc:	31 09       	sbc	r19, r1
     5de:	27 3c       	cpi	r18, 0xC7	; 199
     5e0:	31 05       	cpc	r19, r1
     5e2:	48 f0       	brcs	.+18     	; 0x5f6 <joy_getDirectionX+0x1e>
     5e4:	31 e0       	ldi	r19, 0x01	; 1
     5e6:	20 e0       	ldi	r18, 0x00	; 0
     5e8:	84 3e       	cpi	r24, 0xE4	; 228
     5ea:	91 05       	cpc	r25, r1
     5ec:	0c f4       	brge	.+2      	; 0x5f0 <joy_getDirectionX+0x18>
     5ee:	30 e0       	ldi	r19, 0x00	; 0
     5f0:	83 2f       	mov	r24, r19
     5f2:	92 2f       	mov	r25, r18
     5f4:	08 95       	ret
     5f6:	84 e0       	ldi	r24, 0x04	; 4
     5f8:	90 e0       	ldi	r25, 0x00	; 0
     5fa:	08 95       	ret

000005fc <joy_getDirectionY>:
     5fc:	9c 01       	movw	r18, r24
     5fe:	29 50       	subi	r18, 0x09	; 9
     600:	31 09       	sbc	r19, r1
     602:	2f 3e       	cpi	r18, 0xEF	; 239
     604:	31 05       	cpc	r19, r1
     606:	30 f0       	brcs	.+12     	; 0x614 <joy_getDirectionY+0x18>
     608:	88 3f       	cpi	r24, 0xF8	; 248
     60a:	91 05       	cpc	r25, r1
     60c:	34 f0       	brlt	.+12     	; 0x61a <joy_getDirectionY+0x1e>
     60e:	83 e0       	ldi	r24, 0x03	; 3
     610:	90 e0       	ldi	r25, 0x00	; 0
     612:	08 95       	ret
     614:	84 e0       	ldi	r24, 0x04	; 4
     616:	90 e0       	ldi	r25, 0x00	; 0
     618:	08 95       	ret
     61a:	82 e0       	ldi	r24, 0x02	; 2
     61c:	90 e0       	ldi	r25, 0x00	; 0
     61e:	08 95       	ret

00000620 <joy_doesDirectionChange>:
     620:	0f 93       	push	r16
     622:	1f 93       	push	r17
     624:	cf 93       	push	r28
     626:	df 93       	push	r29
     628:	81 e0       	ldi	r24, 0x01	; 1
     62a:	90 e0       	ldi	r25, 0x00	; 0
     62c:	0e 94 cf 02 	call	0x59e	; 0x59e <adc_read>
     630:	0e 94 fe 02 	call	0x5fc	; 0x5fc <joy_getDirectionY>
     634:	ec 01       	movw	r28, r24
     636:	80 e0       	ldi	r24, 0x00	; 0
     638:	90 e0       	ldi	r25, 0x00	; 0
     63a:	0e 94 cf 02 	call	0x59e	; 0x59e <adc_read>
     63e:	0e 94 ec 02 	call	0x5d8	; 0x5d8 <joy_getDirectionX>
     642:	8c 01       	movw	r16, r24
     644:	80 91 2e 02 	lds	r24, 0x022E
     648:	90 91 2f 02 	lds	r25, 0x022F
     64c:	8c 17       	cp	r24, r28
     64e:	9d 07       	cpc	r25, r29
     650:	21 f0       	breq	.+8      	; 0x65a <joy_doesDirectionChange+0x3a>
     652:	0e 94 11 06 	call	0xc22	; 0xc22 <oled_clear_screen>
     656:	9e 01       	movw	r18, r28
     658:	0b c0       	rjmp	.+22     	; 0x670 <joy_doesDirectionChange+0x50>
     65a:	80 91 2c 02 	lds	r24, 0x022C
     65e:	90 91 2d 02 	lds	r25, 0x022D
     662:	80 17       	cp	r24, r16
     664:	91 07       	cpc	r25, r17
     666:	09 f4       	brne	.+2      	; 0x66a <joy_doesDirectionChange+0x4a>
     668:	56 c0       	rjmp	.+172    	; 0x716 <joy_doesDirectionChange+0xf6>
     66a:	0e 94 11 06 	call	0xc22	; 0xc22 <oled_clear_screen>
     66e:	98 01       	movw	r18, r16
     670:	21 30       	cpi	r18, 0x01	; 1
     672:	31 05       	cpc	r19, r1
     674:	51 f1       	breq	.+84     	; 0x6ca <joy_doesDirectionChange+0xaa>
     676:	1c f4       	brge	.+6      	; 0x67e <joy_doesDirectionChange+0x5e>
     678:	23 2b       	or	r18, r19
     67a:	d1 f1       	breq	.+116    	; 0x6f0 <joy_doesDirectionChange+0xd0>
     67c:	4f c0       	rjmp	.+158    	; 0x71c <joy_doesDirectionChange+0xfc>
     67e:	22 30       	cpi	r18, 0x02	; 2
     680:	31 05       	cpc	r19, r1
     682:	21 f0       	breq	.+8      	; 0x68c <joy_doesDirectionChange+0x6c>
     684:	23 30       	cpi	r18, 0x03	; 3
     686:	31 05       	cpc	r19, r1
     688:	89 f0       	breq	.+34     	; 0x6ac <joy_doesDirectionChange+0x8c>
     68a:	48 c0       	rjmp	.+144    	; 0x71c <joy_doesDirectionChange+0xfc>
     68c:	e0 91 30 02 	lds	r30, 0x0230
     690:	f0 91 31 02 	lds	r31, 0x0231
     694:	82 81       	ldd	r24, Z+2	; 0x02
     696:	93 81       	ldd	r25, Z+3	; 0x03
     698:	00 97       	sbiw	r24, 0x00	; 0
     69a:	09 f4       	brne	.+2      	; 0x69e <joy_doesDirectionChange+0x7e>
     69c:	42 c0       	rjmp	.+132    	; 0x722 <joy_doesDirectionChange+0x102>
     69e:	90 93 31 02 	sts	0x0231, r25
     6a2:	80 93 30 02 	sts	0x0230, r24
     6a6:	81 e0       	ldi	r24, 0x01	; 1
     6a8:	90 e0       	ldi	r25, 0x00	; 0
     6aa:	46 c0       	rjmp	.+140    	; 0x738 <joy_doesDirectionChange+0x118>
     6ac:	e0 91 30 02 	lds	r30, 0x0230
     6b0:	f0 91 31 02 	lds	r31, 0x0231
     6b4:	84 81       	ldd	r24, Z+4	; 0x04
     6b6:	95 81       	ldd	r25, Z+5	; 0x05
     6b8:	00 97       	sbiw	r24, 0x00	; 0
     6ba:	b1 f1       	breq	.+108    	; 0x728 <joy_doesDirectionChange+0x108>
     6bc:	90 93 31 02 	sts	0x0231, r25
     6c0:	80 93 30 02 	sts	0x0230, r24
     6c4:	81 e0       	ldi	r24, 0x01	; 1
     6c6:	90 e0       	ldi	r25, 0x00	; 0
     6c8:	37 c0       	rjmp	.+110    	; 0x738 <joy_doesDirectionChange+0x118>
     6ca:	e0 91 30 02 	lds	r30, 0x0230
     6ce:	f0 91 31 02 	lds	r31, 0x0231
     6d2:	86 81       	ldd	r24, Z+6	; 0x06
     6d4:	97 81       	ldd	r25, Z+7	; 0x07
     6d6:	00 97       	sbiw	r24, 0x00	; 0
     6d8:	51 f1       	breq	.+84     	; 0x72e <joy_doesDirectionChange+0x10e>
     6da:	90 93 31 02 	sts	0x0231, r25
     6de:	80 93 30 02 	sts	0x0230, r24
     6e2:	90 93 35 02 	sts	0x0235, r25
     6e6:	80 93 34 02 	sts	0x0234, r24
     6ea:	81 e0       	ldi	r24, 0x01	; 1
     6ec:	90 e0       	ldi	r25, 0x00	; 0
     6ee:	24 c0       	rjmp	.+72     	; 0x738 <joy_doesDirectionChange+0x118>
     6f0:	e0 91 30 02 	lds	r30, 0x0230
     6f4:	f0 91 31 02 	lds	r31, 0x0231
     6f8:	80 85       	ldd	r24, Z+8	; 0x08
     6fa:	91 85       	ldd	r25, Z+9	; 0x09
     6fc:	00 97       	sbiw	r24, 0x00	; 0
     6fe:	d1 f0       	breq	.+52     	; 0x734 <joy_doesDirectionChange+0x114>
     700:	90 93 31 02 	sts	0x0231, r25
     704:	80 93 30 02 	sts	0x0230, r24
     708:	90 93 35 02 	sts	0x0235, r25
     70c:	80 93 34 02 	sts	0x0234, r24
     710:	81 e0       	ldi	r24, 0x01	; 1
     712:	90 e0       	ldi	r25, 0x00	; 0
     714:	11 c0       	rjmp	.+34     	; 0x738 <joy_doesDirectionChange+0x118>
     716:	80 e0       	ldi	r24, 0x00	; 0
     718:	90 e0       	ldi	r25, 0x00	; 0
     71a:	0e c0       	rjmp	.+28     	; 0x738 <joy_doesDirectionChange+0x118>
     71c:	81 e0       	ldi	r24, 0x01	; 1
     71e:	90 e0       	ldi	r25, 0x00	; 0
     720:	0b c0       	rjmp	.+22     	; 0x738 <joy_doesDirectionChange+0x118>
     722:	81 e0       	ldi	r24, 0x01	; 1
     724:	90 e0       	ldi	r25, 0x00	; 0
     726:	08 c0       	rjmp	.+16     	; 0x738 <joy_doesDirectionChange+0x118>
     728:	81 e0       	ldi	r24, 0x01	; 1
     72a:	90 e0       	ldi	r25, 0x00	; 0
     72c:	05 c0       	rjmp	.+10     	; 0x738 <joy_doesDirectionChange+0x118>
     72e:	81 e0       	ldi	r24, 0x01	; 1
     730:	90 e0       	ldi	r25, 0x00	; 0
     732:	02 c0       	rjmp	.+4      	; 0x738 <joy_doesDirectionChange+0x118>
     734:	81 e0       	ldi	r24, 0x01	; 1
     736:	90 e0       	ldi	r25, 0x00	; 0
     738:	d0 93 2f 02 	sts	0x022F, r29
     73c:	c0 93 2e 02 	sts	0x022E, r28
     740:	10 93 2d 02 	sts	0x022D, r17
     744:	00 93 2c 02 	sts	0x022C, r16
     748:	df 91       	pop	r29
     74a:	cf 91       	pop	r28
     74c:	1f 91       	pop	r17
     74e:	0f 91       	pop	r16
     750:	08 95       	ret

00000752 <main>:

volatile int RECEIVE_BUFFER_INTERRUPT = 0;


int main(void)
{
     752:	cf 93       	push	r28
     754:	df 93       	push	r29
     756:	cd b7       	in	r28, 0x3d	; 61
     758:	de b7       	in	r29, 0x3e	; 62
     75a:	66 97       	sbiw	r28, 0x16	; 22
     75c:	0f b6       	in	r0, 0x3f	; 63
     75e:	f8 94       	cli
     760:	de bf       	out	0x3e, r29	; 62
     762:	0f be       	out	0x3f, r0	; 63
     764:	cd bf       	out	0x3d, r28	; 61
	
	USART_Init(MYUBRR);
     766:	8f e1       	ldi	r24, 0x1F	; 31
     768:	90 e0       	ldi	r25, 0x00	; 0
     76a:	0e 94 c2 02 	call	0x584	; 0x584 <USART_Init>
	extMem_init(); 
     76e:	0e 94 e5 02 	call	0x5ca	; 0x5ca <extMem_init>
	avr_init();
     772:	0e 94 d8 02 	call	0x5b0	; 0x5b0 <avr_init>
	adc_init();
     776:	0e 94 cd 02 	call	0x59a	; 0x59a <adc_init>
	oled_init();
     77a:	0e 94 2a 06 	call	0xc54	; 0xc54 <oled_init>
	oled_clear_screen();
     77e:	0e 94 11 06 	call	0xc22	; 0xc22 <oled_clear_screen>
	menu_init();
     782:	0e 94 46 04 	call	0x88c	; 0x88c <menu_init>
	can_init();
     786:	0e 94 4c 01 	call	0x298	; 0x298 <can_init>
	
	
	
	can_msg melding;
	melding.id = 5;
     78a:	85 e0       	ldi	r24, 0x05	; 5
     78c:	90 e0       	ldi	r25, 0x00	; 0
     78e:	9a 83       	std	Y+2, r25	; 0x02
     790:	89 83       	std	Y+1, r24	; 0x01
	melding.length = 8;
     792:	88 e0       	ldi	r24, 0x08	; 8
     794:	8b 87       	std	Y+11, r24	; 0x0b
	melding.data[0] = (uint8_t)('S');
     796:	83 e5       	ldi	r24, 0x53	; 83
     798:	8b 83       	std	Y+3, r24	; 0x03
	melding.data[1] = (uint8_t)('K');
     79a:	8b e4       	ldi	r24, 0x4B	; 75
     79c:	8c 83       	std	Y+4, r24	; 0x04
	melding.data[2] = (uint8_t)('R');
     79e:	82 e5       	ldi	r24, 0x52	; 82
     7a0:	8d 83       	std	Y+5, r24	; 0x05
	melding.data[3] = (uint8_t)('R');
     7a2:	8e 83       	std	Y+6, r24	; 0x06
	melding.data[4] = (uint8_t)('R');
     7a4:	8f 83       	std	Y+7, r24	; 0x07
	melding.data[5] = (uint8_t)('R');
     7a6:	88 87       	std	Y+8, r24	; 0x08
	melding.data[6] = (uint8_t)('A');
     7a8:	81 e4       	ldi	r24, 0x41	; 65
     7aa:	89 87       	std	Y+9, r24	; 0x09
	melding.data[7] = (uint8_t)('A');
     7ac:	8a 87       	std	Y+10, r24	; 0x0a
	
	printf("NY\n");
     7ae:	87 e3       	ldi	r24, 0x37	; 55
     7b0:	91 e0       	ldi	r25, 0x01	; 1
     7b2:	0e 94 aa 08 	call	0x1154	; 0x1154 <puts>
			char mottatt_data_char4 = mottatt.data[4];
			char mottatt_data_char5 = mottatt.data[5];
			char mottatt_data_char6 = mottatt.data[6];
			char mottatt_data_char7 = mottatt.data[7];
						
			printf("ID: %i  LENGTH: %i   ALL DATA  %c    %c   %c    %c    %c    %c    %c    %c\n", mottatt.id , mottatt.length, mottatt_data_char0, mottatt_data_char1, mottatt_data_char2, mottatt_data_char3, mottatt_data_char4, mottatt_data_char5, mottatt_data_char6, mottatt_data_char7);
     7b6:	0a e3       	ldi	r16, 0x3A	; 58
     7b8:	11 e0       	ldi	r17, 0x01	; 1
			mcp2515_bit_modify(MCP_CANINTF, 0b00000001, 0b00000000); //for å kunne reenable receive buffer 0 interrupten. Må gjøres to ganger
			RECEIVE_BUFFER_INTERRUPT = 0; //clearer interruptflagget
			
			melding.id = 6;
     7ba:	0f 2e       	mov	r0, r31
     7bc:	f6 e0       	ldi	r31, 0x06	; 6
     7be:	ef 2e       	mov	r14, r31
     7c0:	f1 2c       	mov	r15, r1
     7c2:	f0 2d       	mov	r31, r0
	{
		
		
		//_delay_ms(3000); //for å sjekke om interrupten blir høy
		
		can_send_message(&melding);
     7c4:	ce 01       	movw	r24, r28
     7c6:	01 96       	adiw	r24, 0x01	; 1
     7c8:	0e 94 69 01 	call	0x2d2	; 0x2d2 <can_send_message>
		can_msg mottatt;
		
		if(RECEIVE_BUFFER_INTERRUPT){ //Mulig å lage det som en funskjon i ettertid
     7cc:	80 91 2a 02 	lds	r24, 0x022A
     7d0:	90 91 2b 02 	lds	r25, 0x022B
     7d4:	89 2b       	or	r24, r25
     7d6:	e1 f1       	breq	.+120    	; 0x850 <main+0xfe>
			mcp2515_bit_modify(MCP_CANINTF, 0b00000001, 0b00000000); //for å kunne reenable receive buffer 0 interrupten
     7d8:	40 e0       	ldi	r20, 0x00	; 0
     7da:	61 e0       	ldi	r22, 0x01	; 1
     7dc:	8c e2       	ldi	r24, 0x2C	; 44
     7de:	0e 94 90 02 	call	0x520	; 0x520 <mcp2515_bit_modify>
			mottatt = can_receive_message();		
     7e2:	ce 01       	movw	r24, r28
     7e4:	0c 96       	adiw	r24, 0x0c	; 12
     7e6:	0e 94 bc 01 	call	0x378	; 0x378 <can_receive_message>
			char mottatt_data_char4 = mottatt.data[4];
			char mottatt_data_char5 = mottatt.data[5];
			char mottatt_data_char6 = mottatt.data[6];
			char mottatt_data_char7 = mottatt.data[7];
						
			printf("ID: %i  LENGTH: %i   ALL DATA  %c    %c   %c    %c    %c    %c    %c    %c\n", mottatt.id , mottatt.length, mottatt_data_char0, mottatt_data_char1, mottatt_data_char2, mottatt_data_char3, mottatt_data_char4, mottatt_data_char5, mottatt_data_char6, mottatt_data_char7);
     7ea:	8d 89       	ldd	r24, Y+21	; 0x15
     7ec:	1f 92       	push	r1
     7ee:	8f 93       	push	r24
     7f0:	8c 89       	ldd	r24, Y+20	; 0x14
     7f2:	1f 92       	push	r1
     7f4:	8f 93       	push	r24
     7f6:	8b 89       	ldd	r24, Y+19	; 0x13
     7f8:	1f 92       	push	r1
     7fa:	8f 93       	push	r24
     7fc:	8a 89       	ldd	r24, Y+18	; 0x12
     7fe:	1f 92       	push	r1
     800:	8f 93       	push	r24
     802:	89 89       	ldd	r24, Y+17	; 0x11
     804:	1f 92       	push	r1
     806:	8f 93       	push	r24
     808:	88 89       	ldd	r24, Y+16	; 0x10
     80a:	1f 92       	push	r1
     80c:	8f 93       	push	r24
     80e:	8f 85       	ldd	r24, Y+15	; 0x0f
     810:	1f 92       	push	r1
     812:	8f 93       	push	r24
     814:	8e 85       	ldd	r24, Y+14	; 0x0e
     816:	1f 92       	push	r1
     818:	8f 93       	push	r24
     81a:	8e 89       	ldd	r24, Y+22	; 0x16
     81c:	1f 92       	push	r1
     81e:	8f 93       	push	r24
     820:	8d 85       	ldd	r24, Y+13	; 0x0d
     822:	8f 93       	push	r24
     824:	8c 85       	ldd	r24, Y+12	; 0x0c
     826:	8f 93       	push	r24
     828:	1f 93       	push	r17
     82a:	0f 93       	push	r16
     82c:	0e 94 96 08 	call	0x112c	; 0x112c <printf>
			mcp2515_bit_modify(MCP_CANINTF, 0b00000001, 0b00000000); //for å kunne reenable receive buffer 0 interrupten. Må gjøres to ganger
     830:	40 e0       	ldi	r20, 0x00	; 0
     832:	61 e0       	ldi	r22, 0x01	; 1
     834:	8c e2       	ldi	r24, 0x2C	; 44
     836:	0e 94 90 02 	call	0x520	; 0x520 <mcp2515_bit_modify>
			RECEIVE_BUFFER_INTERRUPT = 0; //clearer interruptflagget
     83a:	10 92 2b 02 	sts	0x022B, r1
     83e:	10 92 2a 02 	sts	0x022A, r1
			
			melding.id = 6;
     842:	fa 82       	std	Y+2, r15	; 0x02
     844:	e9 82       	std	Y+1, r14	; 0x01
     846:	0f b6       	in	r0, 0x3f	; 63
     848:	f8 94       	cli
     84a:	de bf       	out	0x3e, r29	; 62
     84c:	0f be       	out	0x3f, r0	; 63
     84e:	cd bf       	out	0x3d, r28	; 61
						
		}
		
		if(joy_doesDirectionChange()){
     850:	0e 94 10 03 	call	0x620	; 0x620 <joy_doesDirectionChange>
     854:	89 2b       	or	r24, r25
     856:	09 f4       	brne	.+2      	; 0x85a <main+0x108>
     858:	b5 cf       	rjmp	.-150    	; 0x7c4 <main+0x72>
			menu_save();
     85a:	0e 94 9e 05 	call	0xb3c	; 0xb3c <menu_save>
			oled_refresh();
     85e:	0e 94 e3 05 	call	0xbc6	; 0xbc6 <oled_refresh>
		}
	}
     862:	b0 cf       	rjmp	.-160    	; 0x7c4 <main+0x72>

00000864 <__vector_3>:
	
	
	
}

ISR(INT2_vect){
     864:	1f 92       	push	r1
     866:	0f 92       	push	r0
     868:	0f b6       	in	r0, 0x3f	; 63
     86a:	0f 92       	push	r0
     86c:	11 24       	eor	r1, r1
     86e:	8f 93       	push	r24
     870:	9f 93       	push	r25
	RECEIVE_BUFFER_INTERRUPT = 1;
     872:	81 e0       	ldi	r24, 0x01	; 1
     874:	90 e0       	ldi	r25, 0x00	; 0
     876:	90 93 2b 02 	sts	0x022B, r25
     87a:	80 93 2a 02 	sts	0x022A, r24
}
     87e:	9f 91       	pop	r25
     880:	8f 91       	pop	r24
     882:	0f 90       	pop	r0
     884:	0f be       	out	0x3f, r0	; 63
     886:	0f 90       	pop	r0
     888:	1f 90       	pop	r1
     88a:	18 95       	reti

0000088c <menu_init>:
     88c:	2f 92       	push	r2
     88e:	3f 92       	push	r3
     890:	4f 92       	push	r4
     892:	5f 92       	push	r5
     894:	6f 92       	push	r6
     896:	7f 92       	push	r7
     898:	8f 92       	push	r8
     89a:	9f 92       	push	r9
     89c:	af 92       	push	r10
     89e:	bf 92       	push	r11
     8a0:	cf 92       	push	r12
     8a2:	df 92       	push	r13
     8a4:	ef 92       	push	r14
     8a6:	ff 92       	push	r15
     8a8:	0f 93       	push	r16
     8aa:	1f 93       	push	r17
     8ac:	cf 93       	push	r28
     8ae:	df 93       	push	r29
     8b0:	00 d0       	rcall	.+0      	; 0x8b2 <menu_init+0x26>
     8b2:	00 d0       	rcall	.+0      	; 0x8b4 <menu_init+0x28>
     8b4:	00 d0       	rcall	.+0      	; 0x8b6 <menu_init+0x2a>
     8b6:	cd b7       	in	r28, 0x3d	; 61
     8b8:	de b7       	in	r29, 0x3e	; 62
     8ba:	8a e0       	ldi	r24, 0x0A	; 10
     8bc:	90 e0       	ldi	r25, 0x00	; 0
     8be:	0e 94 24 07 	call	0xe48	; 0xe48 <malloc>
     8c2:	9e 83       	std	Y+6, r25	; 0x06
     8c4:	8d 83       	std	Y+5, r24	; 0x05
     8c6:	8a e0       	ldi	r24, 0x0A	; 10
     8c8:	90 e0       	ldi	r25, 0x00	; 0
     8ca:	0e 94 24 07 	call	0xe48	; 0xe48 <malloc>
     8ce:	4c 01       	movw	r8, r24
     8d0:	8a e0       	ldi	r24, 0x0A	; 10
     8d2:	90 e0       	ldi	r25, 0x00	; 0
     8d4:	0e 94 24 07 	call	0xe48	; 0xe48 <malloc>
     8d8:	5c 01       	movw	r10, r24
     8da:	8a e0       	ldi	r24, 0x0A	; 10
     8dc:	90 e0       	ldi	r25, 0x00	; 0
     8de:	0e 94 24 07 	call	0xe48	; 0xe48 <malloc>
     8e2:	9a 83       	std	Y+2, r25	; 0x02
     8e4:	89 83       	std	Y+1, r24	; 0x01
     8e6:	8a e0       	ldi	r24, 0x0A	; 10
     8e8:	90 e0       	ldi	r25, 0x00	; 0
     8ea:	0e 94 24 07 	call	0xe48	; 0xe48 <malloc>
     8ee:	6c 01       	movw	r12, r24
     8f0:	8a e0       	ldi	r24, 0x0A	; 10
     8f2:	90 e0       	ldi	r25, 0x00	; 0
     8f4:	0e 94 24 07 	call	0xe48	; 0xe48 <malloc>
     8f8:	8c 01       	movw	r16, r24
     8fa:	8a e0       	ldi	r24, 0x0A	; 10
     8fc:	90 e0       	ldi	r25, 0x00	; 0
     8fe:	0e 94 24 07 	call	0xe48	; 0xe48 <malloc>
     902:	7c 01       	movw	r14, r24
     904:	8a e0       	ldi	r24, 0x0A	; 10
     906:	90 e0       	ldi	r25, 0x00	; 0
     908:	0e 94 24 07 	call	0xe48	; 0xe48 <malloc>
     90c:	2c 01       	movw	r4, r24
     90e:	8a e0       	ldi	r24, 0x0A	; 10
     910:	90 e0       	ldi	r25, 0x00	; 0
     912:	0e 94 24 07 	call	0xe48	; 0xe48 <malloc>
     916:	9c 83       	std	Y+4, r25	; 0x04
     918:	8b 83       	std	Y+3, r24	; 0x03
     91a:	8a e0       	ldi	r24, 0x0A	; 10
     91c:	90 e0       	ldi	r25, 0x00	; 0
     91e:	0e 94 24 07 	call	0xe48	; 0xe48 <malloc>
     922:	3c 01       	movw	r6, r24
     924:	8a e0       	ldi	r24, 0x0A	; 10
     926:	90 e0       	ldi	r25, 0x00	; 0
     928:	0e 94 24 07 	call	0xe48	; 0xe48 <malloc>
     92c:	1c 01       	movw	r2, r24
     92e:	8a e0       	ldi	r24, 0x0A	; 10
     930:	90 e0       	ldi	r25, 0x00	; 0
     932:	0e 94 24 07 	call	0xe48	; 0xe48 <malloc>
     936:	9c 01       	movw	r18, r24
     938:	90 93 33 02 	sts	0x0233, r25
     93c:	80 93 32 02 	sts	0x0232, r24
     940:	8d 81       	ldd	r24, Y+5	; 0x05
     942:	9e 81       	ldd	r25, Y+6	; 0x06
     944:	90 93 35 02 	sts	0x0235, r25
     948:	80 93 34 02 	sts	0x0234, r24
     94c:	90 93 31 02 	sts	0x0231, r25
     950:	80 93 30 02 	sts	0x0230, r24
     954:	86 e8       	ldi	r24, 0x86	; 134
     956:	91 e0       	ldi	r25, 0x01	; 1
     958:	ad 81       	ldd	r26, Y+5	; 0x05
     95a:	be 81       	ldd	r27, Y+6	; 0x06
     95c:	11 96       	adiw	r26, 0x01	; 1
     95e:	9c 93       	st	X, r25
     960:	8e 93       	st	-X, r24
     962:	15 96       	adiw	r26, 0x05	; 5
     964:	1c 92       	st	X, r1
     966:	1e 92       	st	-X, r1
     968:	14 97       	sbiw	r26, 0x04	; 4
     96a:	13 96       	adiw	r26, 0x03	; 3
     96c:	dc 92       	st	X, r13
     96e:	ce 92       	st	-X, r12
     970:	12 97       	sbiw	r26, 0x02	; 2
     972:	17 96       	adiw	r26, 0x07	; 7
     974:	9c 92       	st	X, r9
     976:	8e 92       	st	-X, r8
     978:	16 97       	sbiw	r26, 0x06	; 6
     97a:	19 96       	adiw	r26, 0x09	; 9
     97c:	1c 92       	st	X, r1
     97e:	1e 92       	st	-X, r1
     980:	18 97       	sbiw	r26, 0x08	; 8
     982:	8f e8       	ldi	r24, 0x8F	; 143
     984:	91 e0       	ldi	r25, 0x01	; 1
     986:	f4 01       	movw	r30, r8
     988:	91 83       	std	Z+1, r25	; 0x01
     98a:	80 83       	st	Z, r24
     98c:	15 82       	std	Z+5, r1	; 0x05
     98e:	14 82       	std	Z+4, r1	; 0x04
     990:	b3 82       	std	Z+3, r11	; 0x03
     992:	a2 82       	std	Z+2, r10	; 0x02
     994:	17 82       	std	Z+7, r1	; 0x07
     996:	16 82       	std	Z+6, r1	; 0x06
     998:	b1 87       	std	Z+9, r27	; 0x09
     99a:	a0 87       	std	Z+8, r26	; 0x08
     99c:	84 e9       	ldi	r24, 0x94	; 148
     99e:	91 e0       	ldi	r25, 0x01	; 1
     9a0:	d5 01       	movw	r26, r10
     9a2:	11 96       	adiw	r26, 0x01	; 1
     9a4:	9c 93       	st	X, r25
     9a6:	8e 93       	st	-X, r24
     9a8:	15 96       	adiw	r26, 0x05	; 5
     9aa:	9c 92       	st	X, r9
     9ac:	8e 92       	st	-X, r8
     9ae:	14 97       	sbiw	r26, 0x04	; 4
     9b0:	e9 81       	ldd	r30, Y+1	; 0x01
     9b2:	fa 81       	ldd	r31, Y+2	; 0x02
     9b4:	13 96       	adiw	r26, 0x03	; 3
     9b6:	fc 93       	st	X, r31
     9b8:	ee 93       	st	-X, r30
     9ba:	12 97       	sbiw	r26, 0x02	; 2
     9bc:	17 96       	adiw	r26, 0x07	; 7
     9be:	1c 92       	st	X, r1
     9c0:	1e 92       	st	-X, r1
     9c2:	16 97       	sbiw	r26, 0x06	; 6
     9c4:	8d 81       	ldd	r24, Y+5	; 0x05
     9c6:	9e 81       	ldd	r25, Y+6	; 0x06
     9c8:	19 96       	adiw	r26, 0x09	; 9
     9ca:	9c 93       	st	X, r25
     9cc:	8e 93       	st	-X, r24
     9ce:	18 97       	sbiw	r26, 0x08	; 8
     9d0:	8b e9       	ldi	r24, 0x9B	; 155
     9d2:	91 e0       	ldi	r25, 0x01	; 1
     9d4:	91 83       	std	Z+1, r25	; 0x01
     9d6:	80 83       	st	Z, r24
     9d8:	b5 82       	std	Z+5, r11	; 0x05
     9da:	a4 82       	std	Z+4, r10	; 0x04
     9dc:	13 82       	std	Z+3, r1	; 0x03
     9de:	12 82       	std	Z+2, r1	; 0x02
     9e0:	17 82       	std	Z+7, r1	; 0x07
     9e2:	16 82       	std	Z+6, r1	; 0x06
     9e4:	ad 81       	ldd	r26, Y+5	; 0x05
     9e6:	be 81       	ldd	r27, Y+6	; 0x06
     9e8:	b1 87       	std	Z+9, r27	; 0x09
     9ea:	a0 87       	std	Z+8, r26	; 0x08
     9ec:	80 ea       	ldi	r24, 0xA0	; 160
     9ee:	91 e0       	ldi	r25, 0x01	; 1
     9f0:	f6 01       	movw	r30, r12
     9f2:	91 83       	std	Z+1, r25	; 0x01
     9f4:	80 83       	st	Z, r24
     9f6:	b5 83       	std	Z+5, r27	; 0x05
     9f8:	a4 83       	std	Z+4, r26	; 0x04
     9fa:	13 83       	std	Z+3, r17	; 0x03
     9fc:	02 83       	std	Z+2, r16	; 0x02
     9fe:	17 82       	std	Z+7, r1	; 0x07
     a00:	16 82       	std	Z+6, r1	; 0x06
     a02:	11 86       	std	Z+9, r1	; 0x09
     a04:	10 86       	std	Z+8, r1	; 0x08
     a06:	8a ea       	ldi	r24, 0xAA	; 170
     a08:	91 e0       	ldi	r25, 0x01	; 1
     a0a:	d8 01       	movw	r26, r16
     a0c:	11 96       	adiw	r26, 0x01	; 1
     a0e:	9c 93       	st	X, r25
     a10:	8e 93       	st	-X, r24
     a12:	15 96       	adiw	r26, 0x05	; 5
     a14:	dc 92       	st	X, r13
     a16:	ce 92       	st	-X, r12
     a18:	14 97       	sbiw	r26, 0x04	; 4
     a1a:	13 96       	adiw	r26, 0x03	; 3
     a1c:	3c 92       	st	X, r3
     a1e:	2e 92       	st	-X, r2
     a20:	12 97       	sbiw	r26, 0x02	; 2
     a22:	17 96       	adiw	r26, 0x07	; 7
     a24:	7c 92       	st	X, r7
     a26:	6e 92       	st	-X, r6
     a28:	16 97       	sbiw	r26, 0x06	; 6
     a2a:	19 96       	adiw	r26, 0x09	; 9
     a2c:	1c 92       	st	X, r1
     a2e:	1e 92       	st	-X, r1
     a30:	18 97       	sbiw	r26, 0x08	; 8
     a32:	82 eb       	ldi	r24, 0xB2	; 178
     a34:	91 e0       	ldi	r25, 0x01	; 1
     a36:	f3 01       	movw	r30, r6
     a38:	91 83       	std	Z+1, r25	; 0x01
     a3a:	80 83       	st	Z, r24
     a3c:	15 82       	std	Z+5, r1	; 0x05
     a3e:	14 82       	std	Z+4, r1	; 0x04
     a40:	f3 82       	std	Z+3, r15	; 0x03
     a42:	e2 82       	std	Z+2, r14	; 0x02
     a44:	17 82       	std	Z+7, r1	; 0x07
     a46:	16 82       	std	Z+6, r1	; 0x06
     a48:	11 87       	std	Z+9, r17	; 0x09
     a4a:	00 87       	std	Z+8, r16	; 0x08
     a4c:	8e eb       	ldi	r24, 0xBE	; 190
     a4e:	91 e0       	ldi	r25, 0x01	; 1
     a50:	d7 01       	movw	r26, r14
     a52:	11 96       	adiw	r26, 0x01	; 1
     a54:	9c 93       	st	X, r25
     a56:	8e 93       	st	-X, r24
     a58:	15 96       	adiw	r26, 0x05	; 5
     a5a:	7c 92       	st	X, r7
     a5c:	6e 92       	st	-X, r6
     a5e:	14 97       	sbiw	r26, 0x04	; 4
     a60:	13 96       	adiw	r26, 0x03	; 3
     a62:	1c 92       	st	X, r1
     a64:	1e 92       	st	-X, r1
     a66:	12 97       	sbiw	r26, 0x02	; 2
     a68:	17 96       	adiw	r26, 0x07	; 7
     a6a:	5c 92       	st	X, r5
     a6c:	4e 92       	st	-X, r4
     a6e:	16 97       	sbiw	r26, 0x06	; 6
     a70:	19 96       	adiw	r26, 0x09	; 9
     a72:	1c 93       	st	X, r17
     a74:	0e 93       	st	-X, r16
     a76:	18 97       	sbiw	r26, 0x08	; 8
     a78:	84 ec       	ldi	r24, 0xC4	; 196
     a7a:	91 e0       	ldi	r25, 0x01	; 1
     a7c:	f2 01       	movw	r30, r4
     a7e:	91 83       	std	Z+1, r25	; 0x01
     a80:	80 83       	st	Z, r24
     a82:	15 82       	std	Z+5, r1	; 0x05
     a84:	14 82       	std	Z+4, r1	; 0x04
     a86:	8b 81       	ldd	r24, Y+3	; 0x03
     a88:	9c 81       	ldd	r25, Y+4	; 0x04
     a8a:	93 83       	std	Z+3, r25	; 0x03
     a8c:	82 83       	std	Z+2, r24	; 0x02
     a8e:	17 82       	std	Z+7, r1	; 0x07
     a90:	16 82       	std	Z+6, r1	; 0x06
     a92:	f1 86       	std	Z+9, r15	; 0x09
     a94:	e0 86       	std	Z+8, r14	; 0x08
     a96:	8d ec       	ldi	r24, 0xCD	; 205
     a98:	91 e0       	ldi	r25, 0x01	; 1
     a9a:	ab 81       	ldd	r26, Y+3	; 0x03
     a9c:	bc 81       	ldd	r27, Y+4	; 0x04
     a9e:	11 96       	adiw	r26, 0x01	; 1
     aa0:	9c 93       	st	X, r25
     aa2:	8e 93       	st	-X, r24
     aa4:	15 96       	adiw	r26, 0x05	; 5
     aa6:	5c 92       	st	X, r5
     aa8:	4e 92       	st	-X, r4
     aaa:	14 97       	sbiw	r26, 0x04	; 4
     aac:	13 96       	adiw	r26, 0x03	; 3
     aae:	1c 92       	st	X, r1
     ab0:	1e 92       	st	-X, r1
     ab2:	12 97       	sbiw	r26, 0x02	; 2
     ab4:	17 96       	adiw	r26, 0x07	; 7
     ab6:	1c 92       	st	X, r1
     ab8:	1e 92       	st	-X, r1
     aba:	16 97       	sbiw	r26, 0x06	; 6
     abc:	19 96       	adiw	r26, 0x09	; 9
     abe:	fc 92       	st	X, r15
     ac0:	ee 92       	st	-X, r14
     ac2:	18 97       	sbiw	r26, 0x08	; 8
     ac4:	87 ed       	ldi	r24, 0xD7	; 215
     ac6:	91 e0       	ldi	r25, 0x01	; 1
     ac8:	f1 01       	movw	r30, r2
     aca:	91 83       	std	Z+1, r25	; 0x01
     acc:	80 83       	st	Z, r24
     ace:	15 83       	std	Z+5, r17	; 0x05
     ad0:	04 83       	std	Z+4, r16	; 0x04
     ad2:	13 82       	std	Z+3, r1	; 0x03
     ad4:	12 82       	std	Z+2, r1	; 0x02
     ad6:	37 83       	std	Z+7, r19	; 0x07
     ad8:	26 83       	std	Z+6, r18	; 0x06
     ada:	11 86       	std	Z+9, r1	; 0x09
     adc:	10 86       	std	Z+8, r1	; 0x08
     ade:	8f ed       	ldi	r24, 0xDF	; 223
     ae0:	91 e0       	ldi	r25, 0x01	; 1
     ae2:	d9 01       	movw	r26, r18
     ae4:	11 96       	adiw	r26, 0x01	; 1
     ae6:	9c 93       	st	X, r25
     ae8:	8e 93       	st	-X, r24
     aea:	15 96       	adiw	r26, 0x05	; 5
     aec:	1c 92       	st	X, r1
     aee:	1e 92       	st	-X, r1
     af0:	14 97       	sbiw	r26, 0x04	; 4
     af2:	13 96       	adiw	r26, 0x03	; 3
     af4:	1c 92       	st	X, r1
     af6:	1e 92       	st	-X, r1
     af8:	12 97       	sbiw	r26, 0x02	; 2
     afa:	17 96       	adiw	r26, 0x07	; 7
     afc:	1c 92       	st	X, r1
     afe:	1e 92       	st	-X, r1
     b00:	16 97       	sbiw	r26, 0x06	; 6
     b02:	19 96       	adiw	r26, 0x09	; 9
     b04:	3c 92       	st	X, r3
     b06:	2e 92       	st	-X, r2
     b08:	18 97       	sbiw	r26, 0x08	; 8
     b0a:	26 96       	adiw	r28, 0x06	; 6
     b0c:	0f b6       	in	r0, 0x3f	; 63
     b0e:	f8 94       	cli
     b10:	de bf       	out	0x3e, r29	; 62
     b12:	0f be       	out	0x3f, r0	; 63
     b14:	cd bf       	out	0x3d, r28	; 61
     b16:	df 91       	pop	r29
     b18:	cf 91       	pop	r28
     b1a:	1f 91       	pop	r17
     b1c:	0f 91       	pop	r16
     b1e:	ff 90       	pop	r15
     b20:	ef 90       	pop	r14
     b22:	df 90       	pop	r13
     b24:	cf 90       	pop	r12
     b26:	bf 90       	pop	r11
     b28:	af 90       	pop	r10
     b2a:	9f 90       	pop	r9
     b2c:	8f 90       	pop	r8
     b2e:	7f 90       	pop	r7
     b30:	6f 90       	pop	r6
     b32:	5f 90       	pop	r5
     b34:	4f 90       	pop	r4
     b36:	3f 90       	pop	r3
     b38:	2f 90       	pop	r2
     b3a:	08 95       	ret

00000b3c <menu_save>:
     b3c:	1f 93       	push	r17
     b3e:	cf 93       	push	r28
     b40:	df 93       	push	r29
     b42:	c0 91 34 02 	lds	r28, 0x0234
     b46:	d0 91 35 02 	lds	r29, 0x0235
     b4a:	8c 81       	ldd	r24, Y+4	; 0x04
     b4c:	9d 81       	ldd	r25, Y+5	; 0x05
     b4e:	00 97       	sbiw	r24, 0x00	; 0
     b50:	11 f0       	breq	.+4      	; 0xb56 <menu_save+0x1a>
     b52:	ec 01       	movw	r28, r24
     b54:	fa cf       	rjmp	.-12     	; 0xb4a <menu_save+0xe>
     b56:	20 97       	sbiw	r28, 0x00	; 0
     b58:	09 f1       	breq	.+66     	; 0xb9c <menu_save+0x60>
     b5a:	10 e0       	ldi	r17, 0x00	; 0
     b5c:	80 91 30 02 	lds	r24, 0x0230
     b60:	90 91 31 02 	lds	r25, 0x0231
     b64:	8c 17       	cp	r24, r28
     b66:	9d 07       	cpc	r25, r29
     b68:	69 f4       	brne	.+26     	; 0xb84 <menu_save+0x48>
     b6a:	20 91 32 02 	lds	r18, 0x0232
     b6e:	30 91 33 02 	lds	r19, 0x0233
     b72:	82 17       	cp	r24, r18
     b74:	93 07       	cpc	r25, r19
     b76:	31 f0       	breq	.+12     	; 0xb84 <menu_save+0x48>
     b78:	40 e0       	ldi	r20, 0x00	; 0
     b7a:	61 2f       	mov	r22, r17
     b7c:	85 e2       	ldi	r24, 0x25	; 37
     b7e:	92 e0       	ldi	r25, 0x02	; 2
     b80:	0e 94 d1 06 	call	0xda2	; 0xda2 <sram_save_string>
     b84:	44 e1       	ldi	r20, 0x14	; 20
     b86:	61 2f       	mov	r22, r17
     b88:	88 81       	ld	r24, Y
     b8a:	99 81       	ldd	r25, Y+1	; 0x01
     b8c:	0e 94 d1 06 	call	0xda2	; 0xda2 <sram_save_string>
     b90:	0a 80       	ldd	r0, Y+2	; 0x02
     b92:	db 81       	ldd	r29, Y+3	; 0x03
     b94:	c0 2d       	mov	r28, r0
     b96:	1f 5f       	subi	r17, 0xFF	; 255
     b98:	20 97       	sbiw	r28, 0x00	; 0
     b9a:	01 f7       	brne	.-64     	; 0xb5c <menu_save+0x20>
     b9c:	df 91       	pop	r29
     b9e:	cf 91       	pop	r28
     ba0:	1f 91       	pop	r17
     ba2:	08 95       	ret

00000ba4 <oled_goto_column>:
     ba4:	98 2f       	mov	r25, r24
     ba6:	9f 70       	andi	r25, 0x0F	; 15
     ba8:	e0 e0       	ldi	r30, 0x00	; 0
     baa:	f0 e1       	ldi	r31, 0x10	; 16
     bac:	90 83       	st	Z, r25
     bae:	82 95       	swap	r24
     bb0:	8f 70       	andi	r24, 0x0F	; 15
     bb2:	80 5f       	subi	r24, 0xF0	; 240
     bb4:	80 83       	st	Z, r24
     bb6:	08 95       	ret

00000bb8 <oled_goto_pos>:
     bb8:	80 55       	subi	r24, 0x50	; 80
     bba:	80 93 00 10 	sts	0x1000, r24
     bbe:	86 2f       	mov	r24, r22
     bc0:	0e 94 d2 05 	call	0xba4	; 0xba4 <oled_goto_column>
     bc4:	08 95       	ret

00000bc6 <oled_refresh>:
     bc6:	df 92       	push	r13
     bc8:	ef 92       	push	r14
     bca:	ff 92       	push	r15
     bcc:	0f 93       	push	r16
     bce:	1f 93       	push	r17
     bd0:	cf 93       	push	r28
     bd2:	df 93       	push	r29
     bd4:	00 e0       	ldi	r16, 0x00	; 0
     bd6:	10 e0       	ldi	r17, 0x00	; 0
     bd8:	f1 2c       	mov	r15, r1
     bda:	d1 2c       	mov	r13, r1
     bdc:	e1 2c       	mov	r14, r1
     bde:	c0 e0       	ldi	r28, 0x00	; 0
     be0:	d2 e1       	ldi	r29, 0x12	; 18
     be2:	60 e0       	ldi	r22, 0x00	; 0
     be4:	8f 2d       	mov	r24, r15
     be6:	0e 94 dc 05 	call	0xbb8	; 0xbb8 <oled_goto_pos>
     bea:	2d 2d       	mov	r18, r13
     bec:	3e 2d       	mov	r19, r14
     bee:	a8 01       	movw	r20, r16
     bf0:	58 5e       	subi	r21, 0xE8	; 232
     bf2:	fa 01       	movw	r30, r20
     bf4:	e2 0f       	add	r30, r18
     bf6:	f3 1f       	adc	r31, r19
     bf8:	90 81       	ld	r25, Z
     bfa:	98 83       	st	Y, r25
     bfc:	2f 5f       	subi	r18, 0xFF	; 255
     bfe:	3f 4f       	sbci	r19, 0xFF	; 255
     c00:	20 38       	cpi	r18, 0x80	; 128
     c02:	31 05       	cpc	r19, r1
     c04:	b1 f7       	brne	.-20     	; 0xbf2 <oled_refresh+0x2c>
     c06:	f3 94       	inc	r15
     c08:	00 58       	subi	r16, 0x80	; 128
     c0a:	1f 4f       	sbci	r17, 0xFF	; 255
     c0c:	88 e0       	ldi	r24, 0x08	; 8
     c0e:	f8 12       	cpse	r15, r24
     c10:	e8 cf       	rjmp	.-48     	; 0xbe2 <oled_refresh+0x1c>
     c12:	df 91       	pop	r29
     c14:	cf 91       	pop	r28
     c16:	1f 91       	pop	r17
     c18:	0f 91       	pop	r16
     c1a:	ff 90       	pop	r15
     c1c:	ef 90       	pop	r14
     c1e:	df 90       	pop	r13
     c20:	08 95       	ret

00000c22 <oled_clear_screen>:
     c22:	1f 93       	push	r17
     c24:	cf 93       	push	r28
     c26:	df 93       	push	r29
     c28:	10 e0       	ldi	r17, 0x00	; 0
     c2a:	d0 e0       	ldi	r29, 0x00	; 0
     c2c:	81 2f       	mov	r24, r17
     c2e:	0e 94 69 06 	call	0xcd2	; 0xcd2 <sram_goto_page>
     c32:	cd 2f       	mov	r28, r29
     c34:	8c 2f       	mov	r24, r28
     c36:	0e 94 6c 06 	call	0xcd8	; 0xcd8 <sram_goto_column>
     c3a:	8d 2f       	mov	r24, r29
     c3c:	0e 94 5c 06 	call	0xcb8	; 0xcb8 <sram_write_data>
     c40:	cf 5f       	subi	r28, 0xFF	; 255
     c42:	c0 38       	cpi	r28, 0x80	; 128
     c44:	b9 f7       	brne	.-18     	; 0xc34 <oled_clear_screen+0x12>
     c46:	1f 5f       	subi	r17, 0xFF	; 255
     c48:	18 30       	cpi	r17, 0x08	; 8
     c4a:	81 f7       	brne	.-32     	; 0xc2c <oled_clear_screen+0xa>
     c4c:	df 91       	pop	r29
     c4e:	cf 91       	pop	r28
     c50:	1f 91       	pop	r17
     c52:	08 95       	ret

00000c54 <oled_init>:
     c54:	e0 e0       	ldi	r30, 0x00	; 0
     c56:	f0 e1       	ldi	r31, 0x10	; 16
     c58:	8e ea       	ldi	r24, 0xAE	; 174
     c5a:	80 83       	st	Z, r24
     c5c:	81 ea       	ldi	r24, 0xA1	; 161
     c5e:	80 83       	st	Z, r24
     c60:	8a ed       	ldi	r24, 0xDA	; 218
     c62:	80 83       	st	Z, r24
     c64:	82 e1       	ldi	r24, 0x12	; 18
     c66:	80 83       	st	Z, r24
     c68:	88 ec       	ldi	r24, 0xC8	; 200
     c6a:	80 83       	st	Z, r24
     c6c:	88 ea       	ldi	r24, 0xA8	; 168
     c6e:	80 83       	st	Z, r24
     c70:	8f e3       	ldi	r24, 0x3F	; 63
     c72:	80 83       	st	Z, r24
     c74:	85 ed       	ldi	r24, 0xD5	; 213
     c76:	80 83       	st	Z, r24
     c78:	80 e8       	ldi	r24, 0x80	; 128
     c7a:	80 83       	st	Z, r24
     c7c:	81 e8       	ldi	r24, 0x81	; 129
     c7e:	80 83       	st	Z, r24
     c80:	80 e5       	ldi	r24, 0x50	; 80
     c82:	80 83       	st	Z, r24
     c84:	89 ed       	ldi	r24, 0xD9	; 217
     c86:	80 83       	st	Z, r24
     c88:	81 e2       	ldi	r24, 0x21	; 33
     c8a:	80 83       	st	Z, r24
     c8c:	80 e2       	ldi	r24, 0x20	; 32
     c8e:	80 83       	st	Z, r24
     c90:	82 e0       	ldi	r24, 0x02	; 2
     c92:	80 83       	st	Z, r24
     c94:	8b ed       	ldi	r24, 0xDB	; 219
     c96:	80 83       	st	Z, r24
     c98:	80 e3       	ldi	r24, 0x30	; 48
     c9a:	80 83       	st	Z, r24
     c9c:	8d ea       	ldi	r24, 0xAD	; 173
     c9e:	80 83       	st	Z, r24
     ca0:	10 82       	st	Z, r1
     ca2:	84 ea       	ldi	r24, 0xA4	; 164
     ca4:	80 83       	st	Z, r24
     ca6:	86 ea       	ldi	r24, 0xA6	; 166
     ca8:	80 83       	st	Z, r24
     caa:	8f ea       	ldi	r24, 0xAF	; 175
     cac:	80 83       	st	Z, r24
     cae:	10 92 36 02 	sts	0x0236, r1
     cb2:	10 92 37 02 	sts	0x0237, r1
     cb6:	08 95       	ret

00000cb8 <sram_write_data>:
	printf("SRAM test completed with \n%4d errors in write phase and \n %4d errors in retrieval phase \n\n", write_errors, retrieval_errors);
}

void sram_write_data(uint8_t data){
    volatile char *ext_sram = (char *) (0x1800);
    ext_sram[128*PAGE+COL] = data;
     cb8:	90 91 36 02 	lds	r25, 0x0236
     cbc:	e0 91 37 02 	lds	r30, 0x0237
     cc0:	f0 e0       	ldi	r31, 0x00	; 0
     cc2:	20 e8       	ldi	r18, 0x80	; 128
     cc4:	92 9f       	mul	r25, r18
     cc6:	e0 0d       	add	r30, r0
     cc8:	f1 1d       	adc	r31, r1
     cca:	11 24       	eor	r1, r1
     ccc:	f8 5e       	subi	r31, 0xE8	; 232
     cce:	80 83       	st	Z, r24
     cd0:	08 95       	ret

00000cd2 <sram_goto_page>:
}

void sram_goto_page(uint8_t newPage){
	PAGE = newPage;
     cd2:	80 93 36 02 	sts	0x0236, r24
     cd6:	08 95       	ret

00000cd8 <sram_goto_column>:
}

void sram_goto_column(uint8_t newColumn){
	COL = newColumn;
     cd8:	80 93 37 02 	sts	0x0237, r24
     cdc:	08 95       	ret

00000cde <sram_save_char>:
}

void sram_save_char(char myChar){
     cde:	cf 92       	push	r12
     ce0:	df 92       	push	r13
     ce2:	ef 92       	push	r14
     ce4:	ff 92       	push	r15
     ce6:	0f 93       	push	r16
     ce8:	1f 93       	push	r17
     cea:	cf 93       	push	r28
     cec:	df 93       	push	r29
	int asciValue = myChar;
     cee:	08 2f       	mov	r16, r24
     cf0:	10 e0       	ldi	r17, 0x00	; 0
     cf2:	cb e4       	ldi	r28, 0x4B	; 75
     cf4:	d2 e0       	ldi	r29, 0x02	; 2
	int number = asciValue -32;
     cf6:	c8 01       	movw	r24, r16
     cf8:	80 97       	sbiw	r24, 0x20	; 32
     cfa:	7c 01       	movw	r14, r24
     cfc:	ee 0c       	add	r14, r14
     cfe:	ff 1c       	adc	r15, r15
     d00:	ee 0c       	add	r14, r14
     d02:	ff 1c       	adc	r15, r15
     d04:	8e 0d       	add	r24, r14
     d06:	9f 1d       	adc	r25, r15
     d08:	9c 01       	movw	r18, r24
     d0a:	20 59       	subi	r18, 0x90	; 144
     d0c:	3f 4f       	sbci	r19, 0xFF	; 255
     d0e:	79 01       	movw	r14, r18
     d10:	0f 2e       	mov	r0, r31
     d12:	f0 e5       	ldi	r31, 0x50	; 80
     d14:	cf 2e       	mov	r12, r31
     d16:	f2 e0       	ldi	r31, 0x02	; 2
     d18:	df 2e       	mov	r13, r31
     d1a:	f0 2d       	mov	r31, r0
	int i = 0;
	
	//IF-SETNINGER FOR DE NYE CHARACTERENE VI LAGER!!!!!!!!!!!!!!!!!!!!!!!!!!!!!!!!!!!!!!!!!!!!!!!!!!!!!!!!!!!!!!!!!!!!!!!!!!!!
	for(i=0; i<5; i++){
		if(asciValue == 198){ //Æ
     d1c:	06 3c       	cpi	r16, 0xC6	; 198
     d1e:	11 05       	cpc	r17, r1
     d20:	51 f4       	brne	.+20     	; 0xd36 <sram_save_char+0x58>
			sram_write_data(pgm_read_byte(&font5[95][i]));
     d22:	fe 01       	movw	r30, r28
     d24:	84 91       	lpm	r24, Z
     d26:	0e 94 5c 06 	call	0xcb8	; 0xcb8 <sram_write_data>
			COL++;
     d2a:	80 91 37 02 	lds	r24, 0x0237
     d2e:	8f 5f       	subi	r24, 0xFF	; 255
     d30:	80 93 37 02 	sts	0x0237, r24
     d34:	25 c0       	rjmp	.+74     	; 0xd80 <sram_save_char+0xa2>
		}
		else if(asciValue == 230){ //æ
     d36:	06 3e       	cpi	r16, 0xE6	; 230
     d38:	11 05       	cpc	r17, r1
     d3a:	59 f4       	brne	.+22     	; 0xd52 <sram_save_char+0x74>
     d3c:	fe 01       	movw	r30, r28
     d3e:	35 96       	adiw	r30, 0x05	; 5
			
			sram_write_data(pgm_read_byte(&font5[96][i]));
     d40:	84 91       	lpm	r24, Z
     d42:	0e 94 5c 06 	call	0xcb8	; 0xcb8 <sram_write_data>
			COL++;
     d46:	80 91 37 02 	lds	r24, 0x0237
     d4a:	8f 5f       	subi	r24, 0xFF	; 255
     d4c:	80 93 37 02 	sts	0x0237, r24
     d50:	17 c0       	rjmp	.+46     	; 0xd80 <sram_save_char+0xa2>
		}
		else if(asciValue == 168){
     d52:	08 3a       	cpi	r16, 0xA8	; 168
     d54:	11 05       	cpc	r17, r1
     d56:	59 f4       	brne	.+22     	; 0xd6e <sram_save_char+0x90>
     d58:	fe 01       	movw	r30, r28
     d5a:	3a 96       	adiw	r30, 0x0a	; 10
			//siden ¨ ikke er i fonts, bruker vi denne til å lage smiley
			sram_write_data(pgm_read_byte(&font5[97][i]));
     d5c:	84 91       	lpm	r24, Z
     d5e:	0e 94 5c 06 	call	0xcb8	; 0xcb8 <sram_write_data>
			COL++;
     d62:	80 91 37 02 	lds	r24, 0x0237
     d66:	8f 5f       	subi	r24, 0xFF	; 255
     d68:	80 93 37 02 	sts	0x0237, r24
     d6c:	09 c0       	rjmp	.+18     	; 0xd80 <sram_save_char+0xa2>
		}
		else{
			sram_write_data(pgm_read_byte(&font5[number][i]));
     d6e:	f7 01       	movw	r30, r14
     d70:	84 91       	lpm	r24, Z
     d72:	0e 94 5c 06 	call	0xcb8	; 0xcb8 <sram_write_data>
			COL++;
     d76:	80 91 37 02 	lds	r24, 0x0237
     d7a:	8f 5f       	subi	r24, 0xFF	; 255
     d7c:	80 93 37 02 	sts	0x0237, r24
     d80:	21 96       	adiw	r28, 0x01	; 1
     d82:	ff ef       	ldi	r31, 0xFF	; 255
     d84:	ef 1a       	sub	r14, r31
     d86:	ff 0a       	sbc	r15, r31
	int asciValue = myChar;
	int number = asciValue -32;
	int i = 0;
	
	//IF-SETNINGER FOR DE NYE CHARACTERENE VI LAGER!!!!!!!!!!!!!!!!!!!!!!!!!!!!!!!!!!!!!!!!!!!!!!!!!!!!!!!!!!!!!!!!!!!!!!!!!!!!
	for(i=0; i<5; i++){
     d88:	cc 15       	cp	r28, r12
     d8a:	dd 05       	cpc	r29, r13
     d8c:	09 f0       	breq	.+2      	; 0xd90 <sram_save_char+0xb2>
     d8e:	c6 cf       	rjmp	.-116    	; 0xd1c <sram_save_char+0x3e>
		else{
			sram_write_data(pgm_read_byte(&font5[number][i]));
			COL++;
		}
	}
}
     d90:	df 91       	pop	r29
     d92:	cf 91       	pop	r28
     d94:	1f 91       	pop	r17
     d96:	0f 91       	pop	r16
     d98:	ff 90       	pop	r15
     d9a:	ef 90       	pop	r14
     d9c:	df 90       	pop	r13
     d9e:	cf 90       	pop	r12
     da0:	08 95       	ret

00000da2 <sram_save_string>:

void sram_save_string(char* myString, uint8_t page, uint8_t col){
     da2:	8f 92       	push	r8
     da4:	9f 92       	push	r9
     da6:	af 92       	push	r10
     da8:	bf 92       	push	r11
     daa:	cf 92       	push	r12
     dac:	df 92       	push	r13
     dae:	ef 92       	push	r14
     db0:	ff 92       	push	r15
     db2:	0f 93       	push	r16
     db4:	1f 93       	push	r17
     db6:	cf 93       	push	r28
     db8:	df 93       	push	r29
     dba:	7c 01       	movw	r14, r24
	PAGE = page;
     dbc:	60 93 36 02 	sts	0x0236, r22
	COL = col;
     dc0:	40 93 37 02 	sts	0x0237, r20
	int xPosition = COL;
     dc4:	00 91 37 02 	lds	r16, 0x0237
     dc8:	10 e0       	ldi	r17, 0x00	; 0
     dca:	6c 01       	movw	r12, r24
	int characterNr = 0;
	int colCounter = 0;
     dcc:	c0 e0       	ldi	r28, 0x00	; 0
     dce:	d0 e0       	ldi	r29, 0x00	; 0

	//kode for å gå til neste linje (page) om col er nærme slutten av pagen, horisontalt sett
	for (characterNr = 0; characterNr < strlen(myString); characterNr++){
     dd0:	a1 2c       	mov	r10, r1
     dd2:	b1 2c       	mov	r11, r1
		if((5*colCounter + xPosition) > 123){ //OM VI ENDRER FONT SIZE FRA FONT5, MÅ VI ENDRE 5*colCounter OGSÅ, og vi må endre oled_print_char sine for-løkke-lengder!!!!!!!!!!!!!!!!!!!!!!!!!!!!!!!!!!!!!!!!!!!!!!!
    		++PAGE;
			COL = 0;
			xPosition = 0;
    		colCounter = 0;
     dd4:	81 2c       	mov	r8, r1
     dd6:	91 2c       	mov	r9, r1
	int xPosition = COL;
	int characterNr = 0;
	int colCounter = 0;

	//kode for å gå til neste linje (page) om col er nærme slutten av pagen, horisontalt sett
	for (characterNr = 0; characterNr < strlen(myString); characterNr++){
     dd8:	20 c0       	rjmp	.+64     	; 0xe1a <sram_save_string+0x78>
		if((5*colCounter + xPosition) > 123){ //OM VI ENDRER FONT SIZE FRA FONT5, MÅ VI ENDRE 5*colCounter OGSÅ, og vi må endre oled_print_char sine for-løkke-lengder!!!!!!!!!!!!!!!!!!!!!!!!!!!!!!!!!!!!!!!!!!!!!!!
     dda:	ce 01       	movw	r24, r28
     ddc:	88 0f       	add	r24, r24
     dde:	99 1f       	adc	r25, r25
     de0:	88 0f       	add	r24, r24
     de2:	99 1f       	adc	r25, r25
     de4:	8c 0f       	add	r24, r28
     de6:	9d 1f       	adc	r25, r29
     de8:	80 0f       	add	r24, r16
     dea:	91 1f       	adc	r25, r17
     dec:	8c 37       	cpi	r24, 0x7C	; 124
     dee:	91 05       	cpc	r25, r1
     df0:	5c f0       	brlt	.+22     	; 0xe08 <sram_save_string+0x66>
    		++PAGE;
     df2:	80 91 36 02 	lds	r24, 0x0236
     df6:	8f 5f       	subi	r24, 0xFF	; 255
     df8:	80 93 36 02 	sts	0x0236, r24
			COL = 0;
     dfc:	10 92 37 02 	sts	0x0237, r1
			xPosition = 0;
    		colCounter = 0;
     e00:	c8 2d       	mov	r28, r8
     e02:	d9 2d       	mov	r29, r9
	//kode for å gå til neste linje (page) om col er nærme slutten av pagen, horisontalt sett
	for (characterNr = 0; characterNr < strlen(myString); characterNr++){
		if((5*colCounter + xPosition) > 123){ //OM VI ENDRER FONT SIZE FRA FONT5, MÅ VI ENDRE 5*colCounter OGSÅ, og vi må endre oled_print_char sine for-løkke-lengder!!!!!!!!!!!!!!!!!!!!!!!!!!!!!!!!!!!!!!!!!!!!!!!
    		++PAGE;
			COL = 0;
			xPosition = 0;
     e04:	08 2d       	mov	r16, r8
     e06:	19 2d       	mov	r17, r9
    		colCounter = 0;
		}
		colCounter++;
     e08:	21 96       	adiw	r28, 0x01	; 1
		sram_save_char(myString[characterNr]);
     e0a:	f6 01       	movw	r30, r12
     e0c:	81 91       	ld	r24, Z+
     e0e:	6f 01       	movw	r12, r30
     e10:	0e 94 6f 06 	call	0xcde	; 0xcde <sram_save_char>
	int xPosition = COL;
	int characterNr = 0;
	int colCounter = 0;

	//kode for å gå til neste linje (page) om col er nærme slutten av pagen, horisontalt sett
	for (characterNr = 0; characterNr < strlen(myString); characterNr++){
     e14:	ff ef       	ldi	r31, 0xFF	; 255
     e16:	af 1a       	sub	r10, r31
     e18:	bf 0a       	sbc	r11, r31
     e1a:	f7 01       	movw	r30, r14
     e1c:	01 90       	ld	r0, Z+
     e1e:	00 20       	and	r0, r0
     e20:	e9 f7       	brne	.-6      	; 0xe1c <sram_save_string+0x7a>
     e22:	31 97       	sbiw	r30, 0x01	; 1
     e24:	ee 19       	sub	r30, r14
     e26:	ff 09       	sbc	r31, r15
     e28:	ae 16       	cp	r10, r30
     e2a:	bf 06       	cpc	r11, r31
     e2c:	b0 f2       	brcs	.-84     	; 0xdda <sram_save_string+0x38>
		}
		colCounter++;
		sram_save_char(myString[characterNr]);
	}

     e2e:	df 91       	pop	r29
     e30:	cf 91       	pop	r28
     e32:	1f 91       	pop	r17
     e34:	0f 91       	pop	r16
     e36:	ff 90       	pop	r15
     e38:	ef 90       	pop	r14
     e3a:	df 90       	pop	r13
     e3c:	cf 90       	pop	r12
     e3e:	bf 90       	pop	r11
     e40:	af 90       	pop	r10
     e42:	9f 90       	pop	r9
     e44:	8f 90       	pop	r8
     e46:	08 95       	ret

00000e48 <malloc>:
     e48:	cf 93       	push	r28
     e4a:	df 93       	push	r29
     e4c:	82 30       	cpi	r24, 0x02	; 2
     e4e:	91 05       	cpc	r25, r1
     e50:	10 f4       	brcc	.+4      	; 0xe56 <malloc+0xe>
     e52:	82 e0       	ldi	r24, 0x02	; 2
     e54:	90 e0       	ldi	r25, 0x00	; 0
     e56:	e0 91 3a 02 	lds	r30, 0x023A
     e5a:	f0 91 3b 02 	lds	r31, 0x023B
     e5e:	20 e0       	ldi	r18, 0x00	; 0
     e60:	30 e0       	ldi	r19, 0x00	; 0
     e62:	a0 e0       	ldi	r26, 0x00	; 0
     e64:	b0 e0       	ldi	r27, 0x00	; 0
     e66:	30 97       	sbiw	r30, 0x00	; 0
     e68:	39 f1       	breq	.+78     	; 0xeb8 <malloc+0x70>
     e6a:	40 81       	ld	r20, Z
     e6c:	51 81       	ldd	r21, Z+1	; 0x01
     e6e:	48 17       	cp	r20, r24
     e70:	59 07       	cpc	r21, r25
     e72:	b8 f0       	brcs	.+46     	; 0xea2 <malloc+0x5a>
     e74:	48 17       	cp	r20, r24
     e76:	59 07       	cpc	r21, r25
     e78:	71 f4       	brne	.+28     	; 0xe96 <malloc+0x4e>
     e7a:	82 81       	ldd	r24, Z+2	; 0x02
     e7c:	93 81       	ldd	r25, Z+3	; 0x03
     e7e:	10 97       	sbiw	r26, 0x00	; 0
     e80:	29 f0       	breq	.+10     	; 0xe8c <malloc+0x44>
     e82:	13 96       	adiw	r26, 0x03	; 3
     e84:	9c 93       	st	X, r25
     e86:	8e 93       	st	-X, r24
     e88:	12 97       	sbiw	r26, 0x02	; 2
     e8a:	2c c0       	rjmp	.+88     	; 0xee4 <malloc+0x9c>
     e8c:	90 93 3b 02 	sts	0x023B, r25
     e90:	80 93 3a 02 	sts	0x023A, r24
     e94:	27 c0       	rjmp	.+78     	; 0xee4 <malloc+0x9c>
     e96:	21 15       	cp	r18, r1
     e98:	31 05       	cpc	r19, r1
     e9a:	31 f0       	breq	.+12     	; 0xea8 <malloc+0x60>
     e9c:	42 17       	cp	r20, r18
     e9e:	53 07       	cpc	r21, r19
     ea0:	18 f0       	brcs	.+6      	; 0xea8 <malloc+0x60>
     ea2:	a9 01       	movw	r20, r18
     ea4:	db 01       	movw	r26, r22
     ea6:	01 c0       	rjmp	.+2      	; 0xeaa <malloc+0x62>
     ea8:	ef 01       	movw	r28, r30
     eaa:	9a 01       	movw	r18, r20
     eac:	bd 01       	movw	r22, r26
     eae:	df 01       	movw	r26, r30
     eb0:	02 80       	ldd	r0, Z+2	; 0x02
     eb2:	f3 81       	ldd	r31, Z+3	; 0x03
     eb4:	e0 2d       	mov	r30, r0
     eb6:	d7 cf       	rjmp	.-82     	; 0xe66 <malloc+0x1e>
     eb8:	21 15       	cp	r18, r1
     eba:	31 05       	cpc	r19, r1
     ebc:	f9 f0       	breq	.+62     	; 0xefc <malloc+0xb4>
     ebe:	28 1b       	sub	r18, r24
     ec0:	39 0b       	sbc	r19, r25
     ec2:	24 30       	cpi	r18, 0x04	; 4
     ec4:	31 05       	cpc	r19, r1
     ec6:	80 f4       	brcc	.+32     	; 0xee8 <malloc+0xa0>
     ec8:	8a 81       	ldd	r24, Y+2	; 0x02
     eca:	9b 81       	ldd	r25, Y+3	; 0x03
     ecc:	61 15       	cp	r22, r1
     ece:	71 05       	cpc	r23, r1
     ed0:	21 f0       	breq	.+8      	; 0xeda <malloc+0x92>
     ed2:	fb 01       	movw	r30, r22
     ed4:	93 83       	std	Z+3, r25	; 0x03
     ed6:	82 83       	std	Z+2, r24	; 0x02
     ed8:	04 c0       	rjmp	.+8      	; 0xee2 <malloc+0x9a>
     eda:	90 93 3b 02 	sts	0x023B, r25
     ede:	80 93 3a 02 	sts	0x023A, r24
     ee2:	fe 01       	movw	r30, r28
     ee4:	32 96       	adiw	r30, 0x02	; 2
     ee6:	44 c0       	rjmp	.+136    	; 0xf70 <malloc+0x128>
     ee8:	fe 01       	movw	r30, r28
     eea:	e2 0f       	add	r30, r18
     eec:	f3 1f       	adc	r31, r19
     eee:	81 93       	st	Z+, r24
     ef0:	91 93       	st	Z+, r25
     ef2:	22 50       	subi	r18, 0x02	; 2
     ef4:	31 09       	sbc	r19, r1
     ef6:	39 83       	std	Y+1, r19	; 0x01
     ef8:	28 83       	st	Y, r18
     efa:	3a c0       	rjmp	.+116    	; 0xf70 <malloc+0x128>
     efc:	20 91 38 02 	lds	r18, 0x0238
     f00:	30 91 39 02 	lds	r19, 0x0239
     f04:	23 2b       	or	r18, r19
     f06:	41 f4       	brne	.+16     	; 0xf18 <malloc+0xd0>
     f08:	20 91 02 01 	lds	r18, 0x0102
     f0c:	30 91 03 01 	lds	r19, 0x0103
     f10:	30 93 39 02 	sts	0x0239, r19
     f14:	20 93 38 02 	sts	0x0238, r18
     f18:	20 91 00 01 	lds	r18, 0x0100
     f1c:	30 91 01 01 	lds	r19, 0x0101
     f20:	21 15       	cp	r18, r1
     f22:	31 05       	cpc	r19, r1
     f24:	41 f4       	brne	.+16     	; 0xf36 <malloc+0xee>
     f26:	2d b7       	in	r18, 0x3d	; 61
     f28:	3e b7       	in	r19, 0x3e	; 62
     f2a:	40 91 04 01 	lds	r20, 0x0104
     f2e:	50 91 05 01 	lds	r21, 0x0105
     f32:	24 1b       	sub	r18, r20
     f34:	35 0b       	sbc	r19, r21
     f36:	e0 91 38 02 	lds	r30, 0x0238
     f3a:	f0 91 39 02 	lds	r31, 0x0239
     f3e:	e2 17       	cp	r30, r18
     f40:	f3 07       	cpc	r31, r19
     f42:	a0 f4       	brcc	.+40     	; 0xf6c <malloc+0x124>
     f44:	2e 1b       	sub	r18, r30
     f46:	3f 0b       	sbc	r19, r31
     f48:	28 17       	cp	r18, r24
     f4a:	39 07       	cpc	r19, r25
     f4c:	78 f0       	brcs	.+30     	; 0xf6c <malloc+0x124>
     f4e:	ac 01       	movw	r20, r24
     f50:	4e 5f       	subi	r20, 0xFE	; 254
     f52:	5f 4f       	sbci	r21, 0xFF	; 255
     f54:	24 17       	cp	r18, r20
     f56:	35 07       	cpc	r19, r21
     f58:	48 f0       	brcs	.+18     	; 0xf6c <malloc+0x124>
     f5a:	4e 0f       	add	r20, r30
     f5c:	5f 1f       	adc	r21, r31
     f5e:	50 93 39 02 	sts	0x0239, r21
     f62:	40 93 38 02 	sts	0x0238, r20
     f66:	81 93       	st	Z+, r24
     f68:	91 93       	st	Z+, r25
     f6a:	02 c0       	rjmp	.+4      	; 0xf70 <malloc+0x128>
     f6c:	e0 e0       	ldi	r30, 0x00	; 0
     f6e:	f0 e0       	ldi	r31, 0x00	; 0
     f70:	cf 01       	movw	r24, r30
     f72:	df 91       	pop	r29
     f74:	cf 91       	pop	r28
     f76:	08 95       	ret

00000f78 <free>:
     f78:	cf 93       	push	r28
     f7a:	df 93       	push	r29
     f7c:	00 97       	sbiw	r24, 0x00	; 0
     f7e:	09 f4       	brne	.+2      	; 0xf82 <free+0xa>
     f80:	87 c0       	rjmp	.+270    	; 0x1090 <free+0x118>
     f82:	fc 01       	movw	r30, r24
     f84:	32 97       	sbiw	r30, 0x02	; 2
     f86:	13 82       	std	Z+3, r1	; 0x03
     f88:	12 82       	std	Z+2, r1	; 0x02
     f8a:	c0 91 3a 02 	lds	r28, 0x023A
     f8e:	d0 91 3b 02 	lds	r29, 0x023B
     f92:	20 97       	sbiw	r28, 0x00	; 0
     f94:	81 f4       	brne	.+32     	; 0xfb6 <free+0x3e>
     f96:	20 81       	ld	r18, Z
     f98:	31 81       	ldd	r19, Z+1	; 0x01
     f9a:	28 0f       	add	r18, r24
     f9c:	39 1f       	adc	r19, r25
     f9e:	80 91 38 02 	lds	r24, 0x0238
     fa2:	90 91 39 02 	lds	r25, 0x0239
     fa6:	82 17       	cp	r24, r18
     fa8:	93 07       	cpc	r25, r19
     faa:	79 f5       	brne	.+94     	; 0x100a <free+0x92>
     fac:	f0 93 39 02 	sts	0x0239, r31
     fb0:	e0 93 38 02 	sts	0x0238, r30
     fb4:	6d c0       	rjmp	.+218    	; 0x1090 <free+0x118>
     fb6:	de 01       	movw	r26, r28
     fb8:	20 e0       	ldi	r18, 0x00	; 0
     fba:	30 e0       	ldi	r19, 0x00	; 0
     fbc:	ae 17       	cp	r26, r30
     fbe:	bf 07       	cpc	r27, r31
     fc0:	50 f4       	brcc	.+20     	; 0xfd6 <free+0x5e>
     fc2:	12 96       	adiw	r26, 0x02	; 2
     fc4:	4d 91       	ld	r20, X+
     fc6:	5c 91       	ld	r21, X
     fc8:	13 97       	sbiw	r26, 0x03	; 3
     fca:	9d 01       	movw	r18, r26
     fcc:	41 15       	cp	r20, r1
     fce:	51 05       	cpc	r21, r1
     fd0:	09 f1       	breq	.+66     	; 0x1014 <free+0x9c>
     fd2:	da 01       	movw	r26, r20
     fd4:	f3 cf       	rjmp	.-26     	; 0xfbc <free+0x44>
     fd6:	b3 83       	std	Z+3, r27	; 0x03
     fd8:	a2 83       	std	Z+2, r26	; 0x02
     fda:	40 81       	ld	r20, Z
     fdc:	51 81       	ldd	r21, Z+1	; 0x01
     fde:	84 0f       	add	r24, r20
     fe0:	95 1f       	adc	r25, r21
     fe2:	8a 17       	cp	r24, r26
     fe4:	9b 07       	cpc	r25, r27
     fe6:	71 f4       	brne	.+28     	; 0x1004 <free+0x8c>
     fe8:	8d 91       	ld	r24, X+
     fea:	9c 91       	ld	r25, X
     fec:	11 97       	sbiw	r26, 0x01	; 1
     fee:	84 0f       	add	r24, r20
     ff0:	95 1f       	adc	r25, r21
     ff2:	02 96       	adiw	r24, 0x02	; 2
     ff4:	91 83       	std	Z+1, r25	; 0x01
     ff6:	80 83       	st	Z, r24
     ff8:	12 96       	adiw	r26, 0x02	; 2
     ffa:	8d 91       	ld	r24, X+
     ffc:	9c 91       	ld	r25, X
     ffe:	13 97       	sbiw	r26, 0x03	; 3
    1000:	93 83       	std	Z+3, r25	; 0x03
    1002:	82 83       	std	Z+2, r24	; 0x02
    1004:	21 15       	cp	r18, r1
    1006:	31 05       	cpc	r19, r1
    1008:	29 f4       	brne	.+10     	; 0x1014 <free+0x9c>
    100a:	f0 93 3b 02 	sts	0x023B, r31
    100e:	e0 93 3a 02 	sts	0x023A, r30
    1012:	3e c0       	rjmp	.+124    	; 0x1090 <free+0x118>
    1014:	d9 01       	movw	r26, r18
    1016:	13 96       	adiw	r26, 0x03	; 3
    1018:	fc 93       	st	X, r31
    101a:	ee 93       	st	-X, r30
    101c:	12 97       	sbiw	r26, 0x02	; 2
    101e:	4d 91       	ld	r20, X+
    1020:	5d 91       	ld	r21, X+
    1022:	a4 0f       	add	r26, r20
    1024:	b5 1f       	adc	r27, r21
    1026:	ea 17       	cp	r30, r26
    1028:	fb 07       	cpc	r31, r27
    102a:	79 f4       	brne	.+30     	; 0x104a <free+0xd2>
    102c:	80 81       	ld	r24, Z
    102e:	91 81       	ldd	r25, Z+1	; 0x01
    1030:	84 0f       	add	r24, r20
    1032:	95 1f       	adc	r25, r21
    1034:	02 96       	adiw	r24, 0x02	; 2
    1036:	d9 01       	movw	r26, r18
    1038:	11 96       	adiw	r26, 0x01	; 1
    103a:	9c 93       	st	X, r25
    103c:	8e 93       	st	-X, r24
    103e:	82 81       	ldd	r24, Z+2	; 0x02
    1040:	93 81       	ldd	r25, Z+3	; 0x03
    1042:	13 96       	adiw	r26, 0x03	; 3
    1044:	9c 93       	st	X, r25
    1046:	8e 93       	st	-X, r24
    1048:	12 97       	sbiw	r26, 0x02	; 2
    104a:	e0 e0       	ldi	r30, 0x00	; 0
    104c:	f0 e0       	ldi	r31, 0x00	; 0
    104e:	8a 81       	ldd	r24, Y+2	; 0x02
    1050:	9b 81       	ldd	r25, Y+3	; 0x03
    1052:	00 97       	sbiw	r24, 0x00	; 0
    1054:	19 f0       	breq	.+6      	; 0x105c <free+0xe4>
    1056:	fe 01       	movw	r30, r28
    1058:	ec 01       	movw	r28, r24
    105a:	f9 cf       	rjmp	.-14     	; 0x104e <free+0xd6>
    105c:	ce 01       	movw	r24, r28
    105e:	02 96       	adiw	r24, 0x02	; 2
    1060:	28 81       	ld	r18, Y
    1062:	39 81       	ldd	r19, Y+1	; 0x01
    1064:	82 0f       	add	r24, r18
    1066:	93 1f       	adc	r25, r19
    1068:	20 91 38 02 	lds	r18, 0x0238
    106c:	30 91 39 02 	lds	r19, 0x0239
    1070:	28 17       	cp	r18, r24
    1072:	39 07       	cpc	r19, r25
    1074:	69 f4       	brne	.+26     	; 0x1090 <free+0x118>
    1076:	30 97       	sbiw	r30, 0x00	; 0
    1078:	29 f4       	brne	.+10     	; 0x1084 <free+0x10c>
    107a:	10 92 3b 02 	sts	0x023B, r1
    107e:	10 92 3a 02 	sts	0x023A, r1
    1082:	02 c0       	rjmp	.+4      	; 0x1088 <free+0x110>
    1084:	13 82       	std	Z+3, r1	; 0x03
    1086:	12 82       	std	Z+2, r1	; 0x02
    1088:	d0 93 39 02 	sts	0x0239, r29
    108c:	c0 93 38 02 	sts	0x0238, r28
    1090:	df 91       	pop	r29
    1092:	cf 91       	pop	r28
    1094:	08 95       	ret

00001096 <fdevopen>:
    1096:	0f 93       	push	r16
    1098:	1f 93       	push	r17
    109a:	cf 93       	push	r28
    109c:	df 93       	push	r29
    109e:	ec 01       	movw	r28, r24
    10a0:	8b 01       	movw	r16, r22
    10a2:	00 97       	sbiw	r24, 0x00	; 0
    10a4:	31 f4       	brne	.+12     	; 0x10b2 <fdevopen+0x1c>
    10a6:	61 15       	cp	r22, r1
    10a8:	71 05       	cpc	r23, r1
    10aa:	19 f4       	brne	.+6      	; 0x10b2 <fdevopen+0x1c>
    10ac:	80 e0       	ldi	r24, 0x00	; 0
    10ae:	90 e0       	ldi	r25, 0x00	; 0
    10b0:	38 c0       	rjmp	.+112    	; 0x1122 <fdevopen+0x8c>
    10b2:	6e e0       	ldi	r22, 0x0E	; 14
    10b4:	70 e0       	ldi	r23, 0x00	; 0
    10b6:	81 e0       	ldi	r24, 0x01	; 1
    10b8:	90 e0       	ldi	r25, 0x00	; 0
    10ba:	0e 94 a9 0a 	call	0x1552	; 0x1552 <calloc>
    10be:	fc 01       	movw	r30, r24
    10c0:	00 97       	sbiw	r24, 0x00	; 0
    10c2:	a1 f3       	breq	.-24     	; 0x10ac <fdevopen+0x16>
    10c4:	80 e8       	ldi	r24, 0x80	; 128
    10c6:	83 83       	std	Z+3, r24	; 0x03
    10c8:	01 15       	cp	r16, r1
    10ca:	11 05       	cpc	r17, r1
    10cc:	71 f0       	breq	.+28     	; 0x10ea <fdevopen+0x54>
    10ce:	13 87       	std	Z+11, r17	; 0x0b
    10d0:	02 87       	std	Z+10, r16	; 0x0a
    10d2:	81 e8       	ldi	r24, 0x81	; 129
    10d4:	83 83       	std	Z+3, r24	; 0x03
    10d6:	80 91 3c 02 	lds	r24, 0x023C
    10da:	90 91 3d 02 	lds	r25, 0x023D
    10de:	89 2b       	or	r24, r25
    10e0:	21 f4       	brne	.+8      	; 0x10ea <fdevopen+0x54>
    10e2:	f0 93 3d 02 	sts	0x023D, r31
    10e6:	e0 93 3c 02 	sts	0x023C, r30
    10ea:	20 97       	sbiw	r28, 0x00	; 0
    10ec:	c9 f0       	breq	.+50     	; 0x1120 <fdevopen+0x8a>
    10ee:	d1 87       	std	Z+9, r29	; 0x09
    10f0:	c0 87       	std	Z+8, r28	; 0x08
    10f2:	83 81       	ldd	r24, Z+3	; 0x03
    10f4:	82 60       	ori	r24, 0x02	; 2
    10f6:	83 83       	std	Z+3, r24	; 0x03
    10f8:	80 91 3e 02 	lds	r24, 0x023E
    10fc:	90 91 3f 02 	lds	r25, 0x023F
    1100:	89 2b       	or	r24, r25
    1102:	71 f4       	brne	.+28     	; 0x1120 <fdevopen+0x8a>
    1104:	f0 93 3f 02 	sts	0x023F, r31
    1108:	e0 93 3e 02 	sts	0x023E, r30
    110c:	80 91 40 02 	lds	r24, 0x0240
    1110:	90 91 41 02 	lds	r25, 0x0241
    1114:	89 2b       	or	r24, r25
    1116:	21 f4       	brne	.+8      	; 0x1120 <fdevopen+0x8a>
    1118:	f0 93 41 02 	sts	0x0241, r31
    111c:	e0 93 40 02 	sts	0x0240, r30
    1120:	cf 01       	movw	r24, r30
    1122:	df 91       	pop	r29
    1124:	cf 91       	pop	r28
    1126:	1f 91       	pop	r17
    1128:	0f 91       	pop	r16
    112a:	08 95       	ret

0000112c <printf>:
    112c:	a0 e0       	ldi	r26, 0x00	; 0
    112e:	b0 e0       	ldi	r27, 0x00	; 0
    1130:	ec e9       	ldi	r30, 0x9C	; 156
    1132:	f8 e0       	ldi	r31, 0x08	; 8
    1134:	0c 94 82 0b 	jmp	0x1704	; 0x1704 <__prologue_saves__+0x20>
    1138:	fe 01       	movw	r30, r28
    113a:	35 96       	adiw	r30, 0x05	; 5
    113c:	61 91       	ld	r22, Z+
    113e:	71 91       	ld	r23, Z+
    1140:	af 01       	movw	r20, r30
    1142:	80 91 3e 02 	lds	r24, 0x023E
    1146:	90 91 3f 02 	lds	r25, 0x023F
    114a:	0e 94 d7 08 	call	0x11ae	; 0x11ae <vfprintf>
    114e:	e2 e0       	ldi	r30, 0x02	; 2
    1150:	0c 94 9e 0b 	jmp	0x173c	; 0x173c <__epilogue_restores__+0x20>

00001154 <puts>:
    1154:	0f 93       	push	r16
    1156:	1f 93       	push	r17
    1158:	cf 93       	push	r28
    115a:	df 93       	push	r29
    115c:	e0 91 3e 02 	lds	r30, 0x023E
    1160:	f0 91 3f 02 	lds	r31, 0x023F
    1164:	23 81       	ldd	r18, Z+3	; 0x03
    1166:	21 ff       	sbrs	r18, 1
    1168:	1b c0       	rjmp	.+54     	; 0x11a0 <puts+0x4c>
    116a:	ec 01       	movw	r28, r24
    116c:	00 e0       	ldi	r16, 0x00	; 0
    116e:	10 e0       	ldi	r17, 0x00	; 0
    1170:	89 91       	ld	r24, Y+
    1172:	60 91 3e 02 	lds	r22, 0x023E
    1176:	70 91 3f 02 	lds	r23, 0x023F
    117a:	db 01       	movw	r26, r22
    117c:	18 96       	adiw	r26, 0x08	; 8
    117e:	ed 91       	ld	r30, X+
    1180:	fc 91       	ld	r31, X
    1182:	19 97       	sbiw	r26, 0x09	; 9
    1184:	88 23       	and	r24, r24
    1186:	31 f0       	breq	.+12     	; 0x1194 <puts+0x40>
    1188:	09 95       	icall
    118a:	89 2b       	or	r24, r25
    118c:	89 f3       	breq	.-30     	; 0x1170 <puts+0x1c>
    118e:	0f ef       	ldi	r16, 0xFF	; 255
    1190:	1f ef       	ldi	r17, 0xFF	; 255
    1192:	ee cf       	rjmp	.-36     	; 0x1170 <puts+0x1c>
    1194:	8a e0       	ldi	r24, 0x0A	; 10
    1196:	09 95       	icall
    1198:	89 2b       	or	r24, r25
    119a:	11 f4       	brne	.+4      	; 0x11a0 <puts+0x4c>
    119c:	c8 01       	movw	r24, r16
    119e:	02 c0       	rjmp	.+4      	; 0x11a4 <puts+0x50>
    11a0:	8f ef       	ldi	r24, 0xFF	; 255
    11a2:	9f ef       	ldi	r25, 0xFF	; 255
    11a4:	df 91       	pop	r29
    11a6:	cf 91       	pop	r28
    11a8:	1f 91       	pop	r17
    11aa:	0f 91       	pop	r16
    11ac:	08 95       	ret

000011ae <vfprintf>:
    11ae:	ac e0       	ldi	r26, 0x0C	; 12
    11b0:	b0 e0       	ldi	r27, 0x00	; 0
    11b2:	ed ed       	ldi	r30, 0xDD	; 221
    11b4:	f8 e0       	ldi	r31, 0x08	; 8
    11b6:	0c 94 72 0b 	jmp	0x16e4	; 0x16e4 <__prologue_saves__>
    11ba:	7c 01       	movw	r14, r24
    11bc:	6b 01       	movw	r12, r22
    11be:	8a 01       	movw	r16, r20
    11c0:	fc 01       	movw	r30, r24
    11c2:	17 82       	std	Z+7, r1	; 0x07
    11c4:	16 82       	std	Z+6, r1	; 0x06
    11c6:	83 81       	ldd	r24, Z+3	; 0x03
    11c8:	81 ff       	sbrs	r24, 1
    11ca:	bd c1       	rjmp	.+890    	; 0x1546 <vfprintf+0x398>
    11cc:	ce 01       	movw	r24, r28
    11ce:	01 96       	adiw	r24, 0x01	; 1
    11d0:	4c 01       	movw	r8, r24
    11d2:	f7 01       	movw	r30, r14
    11d4:	93 81       	ldd	r25, Z+3	; 0x03
    11d6:	f6 01       	movw	r30, r12
    11d8:	93 fd       	sbrc	r25, 3
    11da:	85 91       	lpm	r24, Z+
    11dc:	93 ff       	sbrs	r25, 3
    11de:	81 91       	ld	r24, Z+
    11e0:	6f 01       	movw	r12, r30
    11e2:	88 23       	and	r24, r24
    11e4:	09 f4       	brne	.+2      	; 0x11e8 <vfprintf+0x3a>
    11e6:	ab c1       	rjmp	.+854    	; 0x153e <vfprintf+0x390>
    11e8:	85 32       	cpi	r24, 0x25	; 37
    11ea:	39 f4       	brne	.+14     	; 0x11fa <vfprintf+0x4c>
    11ec:	93 fd       	sbrc	r25, 3
    11ee:	85 91       	lpm	r24, Z+
    11f0:	93 ff       	sbrs	r25, 3
    11f2:	81 91       	ld	r24, Z+
    11f4:	6f 01       	movw	r12, r30
    11f6:	85 32       	cpi	r24, 0x25	; 37
    11f8:	29 f4       	brne	.+10     	; 0x1204 <vfprintf+0x56>
    11fa:	b7 01       	movw	r22, r14
    11fc:	90 e0       	ldi	r25, 0x00	; 0
    11fe:	0e 94 e2 0a 	call	0x15c4	; 0x15c4 <fputc>
    1202:	e7 cf       	rjmp	.-50     	; 0x11d2 <vfprintf+0x24>
    1204:	51 2c       	mov	r5, r1
    1206:	31 2c       	mov	r3, r1
    1208:	20 e0       	ldi	r18, 0x00	; 0
    120a:	20 32       	cpi	r18, 0x20	; 32
    120c:	a0 f4       	brcc	.+40     	; 0x1236 <vfprintf+0x88>
    120e:	8b 32       	cpi	r24, 0x2B	; 43
    1210:	69 f0       	breq	.+26     	; 0x122c <vfprintf+0x7e>
    1212:	30 f4       	brcc	.+12     	; 0x1220 <vfprintf+0x72>
    1214:	80 32       	cpi	r24, 0x20	; 32
    1216:	59 f0       	breq	.+22     	; 0x122e <vfprintf+0x80>
    1218:	83 32       	cpi	r24, 0x23	; 35
    121a:	69 f4       	brne	.+26     	; 0x1236 <vfprintf+0x88>
    121c:	20 61       	ori	r18, 0x10	; 16
    121e:	2c c0       	rjmp	.+88     	; 0x1278 <vfprintf+0xca>
    1220:	8d 32       	cpi	r24, 0x2D	; 45
    1222:	39 f0       	breq	.+14     	; 0x1232 <vfprintf+0x84>
    1224:	80 33       	cpi	r24, 0x30	; 48
    1226:	39 f4       	brne	.+14     	; 0x1236 <vfprintf+0x88>
    1228:	21 60       	ori	r18, 0x01	; 1
    122a:	26 c0       	rjmp	.+76     	; 0x1278 <vfprintf+0xca>
    122c:	22 60       	ori	r18, 0x02	; 2
    122e:	24 60       	ori	r18, 0x04	; 4
    1230:	23 c0       	rjmp	.+70     	; 0x1278 <vfprintf+0xca>
    1232:	28 60       	ori	r18, 0x08	; 8
    1234:	21 c0       	rjmp	.+66     	; 0x1278 <vfprintf+0xca>
    1236:	27 fd       	sbrc	r18, 7
    1238:	27 c0       	rjmp	.+78     	; 0x1288 <vfprintf+0xda>
    123a:	30 ed       	ldi	r19, 0xD0	; 208
    123c:	38 0f       	add	r19, r24
    123e:	3a 30       	cpi	r19, 0x0A	; 10
    1240:	78 f4       	brcc	.+30     	; 0x1260 <vfprintf+0xb2>
    1242:	26 ff       	sbrs	r18, 6
    1244:	06 c0       	rjmp	.+12     	; 0x1252 <vfprintf+0xa4>
    1246:	fa e0       	ldi	r31, 0x0A	; 10
    1248:	5f 9e       	mul	r5, r31
    124a:	30 0d       	add	r19, r0
    124c:	11 24       	eor	r1, r1
    124e:	53 2e       	mov	r5, r19
    1250:	13 c0       	rjmp	.+38     	; 0x1278 <vfprintf+0xca>
    1252:	8a e0       	ldi	r24, 0x0A	; 10
    1254:	38 9e       	mul	r3, r24
    1256:	30 0d       	add	r19, r0
    1258:	11 24       	eor	r1, r1
    125a:	33 2e       	mov	r3, r19
    125c:	20 62       	ori	r18, 0x20	; 32
    125e:	0c c0       	rjmp	.+24     	; 0x1278 <vfprintf+0xca>
    1260:	8e 32       	cpi	r24, 0x2E	; 46
    1262:	21 f4       	brne	.+8      	; 0x126c <vfprintf+0xbe>
    1264:	26 fd       	sbrc	r18, 6
    1266:	6b c1       	rjmp	.+726    	; 0x153e <vfprintf+0x390>
    1268:	20 64       	ori	r18, 0x40	; 64
    126a:	06 c0       	rjmp	.+12     	; 0x1278 <vfprintf+0xca>
    126c:	8c 36       	cpi	r24, 0x6C	; 108
    126e:	11 f4       	brne	.+4      	; 0x1274 <vfprintf+0xc6>
    1270:	20 68       	ori	r18, 0x80	; 128
    1272:	02 c0       	rjmp	.+4      	; 0x1278 <vfprintf+0xca>
    1274:	88 36       	cpi	r24, 0x68	; 104
    1276:	41 f4       	brne	.+16     	; 0x1288 <vfprintf+0xda>
    1278:	f6 01       	movw	r30, r12
    127a:	93 fd       	sbrc	r25, 3
    127c:	85 91       	lpm	r24, Z+
    127e:	93 ff       	sbrs	r25, 3
    1280:	81 91       	ld	r24, Z+
    1282:	6f 01       	movw	r12, r30
    1284:	81 11       	cpse	r24, r1
    1286:	c1 cf       	rjmp	.-126    	; 0x120a <vfprintf+0x5c>
    1288:	98 2f       	mov	r25, r24
    128a:	9f 7d       	andi	r25, 0xDF	; 223
    128c:	95 54       	subi	r25, 0x45	; 69
    128e:	93 30       	cpi	r25, 0x03	; 3
    1290:	28 f4       	brcc	.+10     	; 0x129c <vfprintf+0xee>
    1292:	0c 5f       	subi	r16, 0xFC	; 252
    1294:	1f 4f       	sbci	r17, 0xFF	; 255
    1296:	ff e3       	ldi	r31, 0x3F	; 63
    1298:	f9 83       	std	Y+1, r31	; 0x01
    129a:	0d c0       	rjmp	.+26     	; 0x12b6 <vfprintf+0x108>
    129c:	83 36       	cpi	r24, 0x63	; 99
    129e:	31 f0       	breq	.+12     	; 0x12ac <vfprintf+0xfe>
    12a0:	83 37       	cpi	r24, 0x73	; 115
    12a2:	71 f0       	breq	.+28     	; 0x12c0 <vfprintf+0x112>
    12a4:	83 35       	cpi	r24, 0x53	; 83
    12a6:	09 f0       	breq	.+2      	; 0x12aa <vfprintf+0xfc>
    12a8:	5b c0       	rjmp	.+182    	; 0x1360 <vfprintf+0x1b2>
    12aa:	22 c0       	rjmp	.+68     	; 0x12f0 <vfprintf+0x142>
    12ac:	f8 01       	movw	r30, r16
    12ae:	80 81       	ld	r24, Z
    12b0:	89 83       	std	Y+1, r24	; 0x01
    12b2:	0e 5f       	subi	r16, 0xFE	; 254
    12b4:	1f 4f       	sbci	r17, 0xFF	; 255
    12b6:	44 24       	eor	r4, r4
    12b8:	43 94       	inc	r4
    12ba:	51 2c       	mov	r5, r1
    12bc:	54 01       	movw	r10, r8
    12be:	15 c0       	rjmp	.+42     	; 0x12ea <vfprintf+0x13c>
    12c0:	38 01       	movw	r6, r16
    12c2:	f2 e0       	ldi	r31, 0x02	; 2
    12c4:	6f 0e       	add	r6, r31
    12c6:	71 1c       	adc	r7, r1
    12c8:	f8 01       	movw	r30, r16
    12ca:	a0 80       	ld	r10, Z
    12cc:	b1 80       	ldd	r11, Z+1	; 0x01
    12ce:	26 ff       	sbrs	r18, 6
    12d0:	03 c0       	rjmp	.+6      	; 0x12d8 <vfprintf+0x12a>
    12d2:	65 2d       	mov	r22, r5
    12d4:	70 e0       	ldi	r23, 0x00	; 0
    12d6:	02 c0       	rjmp	.+4      	; 0x12dc <vfprintf+0x12e>
    12d8:	6f ef       	ldi	r22, 0xFF	; 255
    12da:	7f ef       	ldi	r23, 0xFF	; 255
    12dc:	c5 01       	movw	r24, r10
    12de:	2c 87       	std	Y+12, r18	; 0x0c
    12e0:	0e 94 d7 0a 	call	0x15ae	; 0x15ae <strnlen>
    12e4:	2c 01       	movw	r4, r24
    12e6:	83 01       	movw	r16, r6
    12e8:	2c 85       	ldd	r18, Y+12	; 0x0c
    12ea:	2f 77       	andi	r18, 0x7F	; 127
    12ec:	22 2e       	mov	r2, r18
    12ee:	17 c0       	rjmp	.+46     	; 0x131e <vfprintf+0x170>
    12f0:	38 01       	movw	r6, r16
    12f2:	f2 e0       	ldi	r31, 0x02	; 2
    12f4:	6f 0e       	add	r6, r31
    12f6:	71 1c       	adc	r7, r1
    12f8:	f8 01       	movw	r30, r16
    12fa:	a0 80       	ld	r10, Z
    12fc:	b1 80       	ldd	r11, Z+1	; 0x01
    12fe:	26 ff       	sbrs	r18, 6
    1300:	03 c0       	rjmp	.+6      	; 0x1308 <vfprintf+0x15a>
    1302:	65 2d       	mov	r22, r5
    1304:	70 e0       	ldi	r23, 0x00	; 0
    1306:	02 c0       	rjmp	.+4      	; 0x130c <vfprintf+0x15e>
    1308:	6f ef       	ldi	r22, 0xFF	; 255
    130a:	7f ef       	ldi	r23, 0xFF	; 255
    130c:	c5 01       	movw	r24, r10
    130e:	2c 87       	std	Y+12, r18	; 0x0c
    1310:	0e 94 c5 0a 	call	0x158a	; 0x158a <strnlen_P>
    1314:	2c 01       	movw	r4, r24
    1316:	2c 85       	ldd	r18, Y+12	; 0x0c
    1318:	20 68       	ori	r18, 0x80	; 128
    131a:	22 2e       	mov	r2, r18
    131c:	83 01       	movw	r16, r6
    131e:	23 fc       	sbrc	r2, 3
    1320:	1b c0       	rjmp	.+54     	; 0x1358 <vfprintf+0x1aa>
    1322:	83 2d       	mov	r24, r3
    1324:	90 e0       	ldi	r25, 0x00	; 0
    1326:	48 16       	cp	r4, r24
    1328:	59 06       	cpc	r5, r25
    132a:	b0 f4       	brcc	.+44     	; 0x1358 <vfprintf+0x1aa>
    132c:	b7 01       	movw	r22, r14
    132e:	80 e2       	ldi	r24, 0x20	; 32
    1330:	90 e0       	ldi	r25, 0x00	; 0
    1332:	0e 94 e2 0a 	call	0x15c4	; 0x15c4 <fputc>
    1336:	3a 94       	dec	r3
    1338:	f4 cf       	rjmp	.-24     	; 0x1322 <vfprintf+0x174>
    133a:	f5 01       	movw	r30, r10
    133c:	27 fc       	sbrc	r2, 7
    133e:	85 91       	lpm	r24, Z+
    1340:	27 fe       	sbrs	r2, 7
    1342:	81 91       	ld	r24, Z+
    1344:	5f 01       	movw	r10, r30
    1346:	b7 01       	movw	r22, r14
    1348:	90 e0       	ldi	r25, 0x00	; 0
    134a:	0e 94 e2 0a 	call	0x15c4	; 0x15c4 <fputc>
    134e:	31 10       	cpse	r3, r1
    1350:	3a 94       	dec	r3
    1352:	f1 e0       	ldi	r31, 0x01	; 1
    1354:	4f 1a       	sub	r4, r31
    1356:	51 08       	sbc	r5, r1
    1358:	41 14       	cp	r4, r1
    135a:	51 04       	cpc	r5, r1
    135c:	71 f7       	brne	.-36     	; 0x133a <vfprintf+0x18c>
    135e:	e5 c0       	rjmp	.+458    	; 0x152a <vfprintf+0x37c>
    1360:	84 36       	cpi	r24, 0x64	; 100
    1362:	11 f0       	breq	.+4      	; 0x1368 <vfprintf+0x1ba>
    1364:	89 36       	cpi	r24, 0x69	; 105
    1366:	39 f5       	brne	.+78     	; 0x13b6 <vfprintf+0x208>
    1368:	f8 01       	movw	r30, r16
    136a:	27 ff       	sbrs	r18, 7
    136c:	07 c0       	rjmp	.+14     	; 0x137c <vfprintf+0x1ce>
    136e:	60 81       	ld	r22, Z
    1370:	71 81       	ldd	r23, Z+1	; 0x01
    1372:	82 81       	ldd	r24, Z+2	; 0x02
    1374:	93 81       	ldd	r25, Z+3	; 0x03
    1376:	0c 5f       	subi	r16, 0xFC	; 252
    1378:	1f 4f       	sbci	r17, 0xFF	; 255
    137a:	08 c0       	rjmp	.+16     	; 0x138c <vfprintf+0x1de>
    137c:	60 81       	ld	r22, Z
    137e:	71 81       	ldd	r23, Z+1	; 0x01
    1380:	88 27       	eor	r24, r24
    1382:	77 fd       	sbrc	r23, 7
    1384:	80 95       	com	r24
    1386:	98 2f       	mov	r25, r24
    1388:	0e 5f       	subi	r16, 0xFE	; 254
    138a:	1f 4f       	sbci	r17, 0xFF	; 255
    138c:	2f 76       	andi	r18, 0x6F	; 111
    138e:	b2 2e       	mov	r11, r18
    1390:	97 ff       	sbrs	r25, 7
    1392:	09 c0       	rjmp	.+18     	; 0x13a6 <vfprintf+0x1f8>
    1394:	90 95       	com	r25
    1396:	80 95       	com	r24
    1398:	70 95       	com	r23
    139a:	61 95       	neg	r22
    139c:	7f 4f       	sbci	r23, 0xFF	; 255
    139e:	8f 4f       	sbci	r24, 0xFF	; 255
    13a0:	9f 4f       	sbci	r25, 0xFF	; 255
    13a2:	20 68       	ori	r18, 0x80	; 128
    13a4:	b2 2e       	mov	r11, r18
    13a6:	2a e0       	ldi	r18, 0x0A	; 10
    13a8:	30 e0       	ldi	r19, 0x00	; 0
    13aa:	a4 01       	movw	r20, r8
    13ac:	0e 94 14 0b 	call	0x1628	; 0x1628 <__ultoa_invert>
    13b0:	a8 2e       	mov	r10, r24
    13b2:	a8 18       	sub	r10, r8
    13b4:	44 c0       	rjmp	.+136    	; 0x143e <vfprintf+0x290>
    13b6:	85 37       	cpi	r24, 0x75	; 117
    13b8:	29 f4       	brne	.+10     	; 0x13c4 <vfprintf+0x216>
    13ba:	2f 7e       	andi	r18, 0xEF	; 239
    13bc:	b2 2e       	mov	r11, r18
    13be:	2a e0       	ldi	r18, 0x0A	; 10
    13c0:	30 e0       	ldi	r19, 0x00	; 0
    13c2:	25 c0       	rjmp	.+74     	; 0x140e <vfprintf+0x260>
    13c4:	f2 2f       	mov	r31, r18
    13c6:	f9 7f       	andi	r31, 0xF9	; 249
    13c8:	bf 2e       	mov	r11, r31
    13ca:	8f 36       	cpi	r24, 0x6F	; 111
    13cc:	c1 f0       	breq	.+48     	; 0x13fe <vfprintf+0x250>
    13ce:	18 f4       	brcc	.+6      	; 0x13d6 <vfprintf+0x228>
    13d0:	88 35       	cpi	r24, 0x58	; 88
    13d2:	79 f0       	breq	.+30     	; 0x13f2 <vfprintf+0x244>
    13d4:	b4 c0       	rjmp	.+360    	; 0x153e <vfprintf+0x390>
    13d6:	80 37       	cpi	r24, 0x70	; 112
    13d8:	19 f0       	breq	.+6      	; 0x13e0 <vfprintf+0x232>
    13da:	88 37       	cpi	r24, 0x78	; 120
    13dc:	21 f0       	breq	.+8      	; 0x13e6 <vfprintf+0x238>
    13de:	af c0       	rjmp	.+350    	; 0x153e <vfprintf+0x390>
    13e0:	2f 2f       	mov	r18, r31
    13e2:	20 61       	ori	r18, 0x10	; 16
    13e4:	b2 2e       	mov	r11, r18
    13e6:	b4 fe       	sbrs	r11, 4
    13e8:	0d c0       	rjmp	.+26     	; 0x1404 <vfprintf+0x256>
    13ea:	8b 2d       	mov	r24, r11
    13ec:	84 60       	ori	r24, 0x04	; 4
    13ee:	b8 2e       	mov	r11, r24
    13f0:	09 c0       	rjmp	.+18     	; 0x1404 <vfprintf+0x256>
    13f2:	24 ff       	sbrs	r18, 4
    13f4:	0a c0       	rjmp	.+20     	; 0x140a <vfprintf+0x25c>
    13f6:	9f 2f       	mov	r25, r31
    13f8:	96 60       	ori	r25, 0x06	; 6
    13fa:	b9 2e       	mov	r11, r25
    13fc:	06 c0       	rjmp	.+12     	; 0x140a <vfprintf+0x25c>
    13fe:	28 e0       	ldi	r18, 0x08	; 8
    1400:	30 e0       	ldi	r19, 0x00	; 0
    1402:	05 c0       	rjmp	.+10     	; 0x140e <vfprintf+0x260>
    1404:	20 e1       	ldi	r18, 0x10	; 16
    1406:	30 e0       	ldi	r19, 0x00	; 0
    1408:	02 c0       	rjmp	.+4      	; 0x140e <vfprintf+0x260>
    140a:	20 e1       	ldi	r18, 0x10	; 16
    140c:	32 e0       	ldi	r19, 0x02	; 2
    140e:	f8 01       	movw	r30, r16
    1410:	b7 fe       	sbrs	r11, 7
    1412:	07 c0       	rjmp	.+14     	; 0x1422 <vfprintf+0x274>
    1414:	60 81       	ld	r22, Z
    1416:	71 81       	ldd	r23, Z+1	; 0x01
    1418:	82 81       	ldd	r24, Z+2	; 0x02
    141a:	93 81       	ldd	r25, Z+3	; 0x03
    141c:	0c 5f       	subi	r16, 0xFC	; 252
    141e:	1f 4f       	sbci	r17, 0xFF	; 255
    1420:	06 c0       	rjmp	.+12     	; 0x142e <vfprintf+0x280>
    1422:	60 81       	ld	r22, Z
    1424:	71 81       	ldd	r23, Z+1	; 0x01
    1426:	80 e0       	ldi	r24, 0x00	; 0
    1428:	90 e0       	ldi	r25, 0x00	; 0
    142a:	0e 5f       	subi	r16, 0xFE	; 254
    142c:	1f 4f       	sbci	r17, 0xFF	; 255
    142e:	a4 01       	movw	r20, r8
    1430:	0e 94 14 0b 	call	0x1628	; 0x1628 <__ultoa_invert>
    1434:	a8 2e       	mov	r10, r24
    1436:	a8 18       	sub	r10, r8
    1438:	fb 2d       	mov	r31, r11
    143a:	ff 77       	andi	r31, 0x7F	; 127
    143c:	bf 2e       	mov	r11, r31
    143e:	b6 fe       	sbrs	r11, 6
    1440:	0b c0       	rjmp	.+22     	; 0x1458 <vfprintf+0x2aa>
    1442:	2b 2d       	mov	r18, r11
    1444:	2e 7f       	andi	r18, 0xFE	; 254
    1446:	a5 14       	cp	r10, r5
    1448:	50 f4       	brcc	.+20     	; 0x145e <vfprintf+0x2b0>
    144a:	b4 fe       	sbrs	r11, 4
    144c:	0a c0       	rjmp	.+20     	; 0x1462 <vfprintf+0x2b4>
    144e:	b2 fc       	sbrc	r11, 2
    1450:	08 c0       	rjmp	.+16     	; 0x1462 <vfprintf+0x2b4>
    1452:	2b 2d       	mov	r18, r11
    1454:	2e 7e       	andi	r18, 0xEE	; 238
    1456:	05 c0       	rjmp	.+10     	; 0x1462 <vfprintf+0x2b4>
    1458:	7a 2c       	mov	r7, r10
    145a:	2b 2d       	mov	r18, r11
    145c:	03 c0       	rjmp	.+6      	; 0x1464 <vfprintf+0x2b6>
    145e:	7a 2c       	mov	r7, r10
    1460:	01 c0       	rjmp	.+2      	; 0x1464 <vfprintf+0x2b6>
    1462:	75 2c       	mov	r7, r5
    1464:	24 ff       	sbrs	r18, 4
    1466:	0d c0       	rjmp	.+26     	; 0x1482 <vfprintf+0x2d4>
    1468:	fe 01       	movw	r30, r28
    146a:	ea 0d       	add	r30, r10
    146c:	f1 1d       	adc	r31, r1
    146e:	80 81       	ld	r24, Z
    1470:	80 33       	cpi	r24, 0x30	; 48
    1472:	11 f4       	brne	.+4      	; 0x1478 <vfprintf+0x2ca>
    1474:	29 7e       	andi	r18, 0xE9	; 233
    1476:	09 c0       	rjmp	.+18     	; 0x148a <vfprintf+0x2dc>
    1478:	22 ff       	sbrs	r18, 2
    147a:	06 c0       	rjmp	.+12     	; 0x1488 <vfprintf+0x2da>
    147c:	73 94       	inc	r7
    147e:	73 94       	inc	r7
    1480:	04 c0       	rjmp	.+8      	; 0x148a <vfprintf+0x2dc>
    1482:	82 2f       	mov	r24, r18
    1484:	86 78       	andi	r24, 0x86	; 134
    1486:	09 f0       	breq	.+2      	; 0x148a <vfprintf+0x2dc>
    1488:	73 94       	inc	r7
    148a:	23 fd       	sbrc	r18, 3
    148c:	13 c0       	rjmp	.+38     	; 0x14b4 <vfprintf+0x306>
    148e:	20 ff       	sbrs	r18, 0
    1490:	06 c0       	rjmp	.+12     	; 0x149e <vfprintf+0x2f0>
    1492:	5a 2c       	mov	r5, r10
    1494:	73 14       	cp	r7, r3
    1496:	18 f4       	brcc	.+6      	; 0x149e <vfprintf+0x2f0>
    1498:	53 0c       	add	r5, r3
    149a:	57 18       	sub	r5, r7
    149c:	73 2c       	mov	r7, r3
    149e:	73 14       	cp	r7, r3
    14a0:	68 f4       	brcc	.+26     	; 0x14bc <vfprintf+0x30e>
    14a2:	b7 01       	movw	r22, r14
    14a4:	80 e2       	ldi	r24, 0x20	; 32
    14a6:	90 e0       	ldi	r25, 0x00	; 0
    14a8:	2c 87       	std	Y+12, r18	; 0x0c
    14aa:	0e 94 e2 0a 	call	0x15c4	; 0x15c4 <fputc>
    14ae:	73 94       	inc	r7
    14b0:	2c 85       	ldd	r18, Y+12	; 0x0c
    14b2:	f5 cf       	rjmp	.-22     	; 0x149e <vfprintf+0x2f0>
    14b4:	73 14       	cp	r7, r3
    14b6:	10 f4       	brcc	.+4      	; 0x14bc <vfprintf+0x30e>
    14b8:	37 18       	sub	r3, r7
    14ba:	01 c0       	rjmp	.+2      	; 0x14be <vfprintf+0x310>
    14bc:	31 2c       	mov	r3, r1
    14be:	24 ff       	sbrs	r18, 4
    14c0:	12 c0       	rjmp	.+36     	; 0x14e6 <vfprintf+0x338>
    14c2:	b7 01       	movw	r22, r14
    14c4:	80 e3       	ldi	r24, 0x30	; 48
    14c6:	90 e0       	ldi	r25, 0x00	; 0
    14c8:	2c 87       	std	Y+12, r18	; 0x0c
    14ca:	0e 94 e2 0a 	call	0x15c4	; 0x15c4 <fputc>
    14ce:	2c 85       	ldd	r18, Y+12	; 0x0c
    14d0:	22 ff       	sbrs	r18, 2
    14d2:	17 c0       	rjmp	.+46     	; 0x1502 <vfprintf+0x354>
    14d4:	21 ff       	sbrs	r18, 1
    14d6:	03 c0       	rjmp	.+6      	; 0x14de <vfprintf+0x330>
    14d8:	88 e5       	ldi	r24, 0x58	; 88
    14da:	90 e0       	ldi	r25, 0x00	; 0
    14dc:	02 c0       	rjmp	.+4      	; 0x14e2 <vfprintf+0x334>
    14de:	88 e7       	ldi	r24, 0x78	; 120
    14e0:	90 e0       	ldi	r25, 0x00	; 0
    14e2:	b7 01       	movw	r22, r14
    14e4:	0c c0       	rjmp	.+24     	; 0x14fe <vfprintf+0x350>
    14e6:	82 2f       	mov	r24, r18
    14e8:	86 78       	andi	r24, 0x86	; 134
    14ea:	59 f0       	breq	.+22     	; 0x1502 <vfprintf+0x354>
    14ec:	21 fd       	sbrc	r18, 1
    14ee:	02 c0       	rjmp	.+4      	; 0x14f4 <vfprintf+0x346>
    14f0:	80 e2       	ldi	r24, 0x20	; 32
    14f2:	01 c0       	rjmp	.+2      	; 0x14f6 <vfprintf+0x348>
    14f4:	8b e2       	ldi	r24, 0x2B	; 43
    14f6:	27 fd       	sbrc	r18, 7
    14f8:	8d e2       	ldi	r24, 0x2D	; 45
    14fa:	b7 01       	movw	r22, r14
    14fc:	90 e0       	ldi	r25, 0x00	; 0
    14fe:	0e 94 e2 0a 	call	0x15c4	; 0x15c4 <fputc>
    1502:	a5 14       	cp	r10, r5
    1504:	38 f4       	brcc	.+14     	; 0x1514 <vfprintf+0x366>
    1506:	b7 01       	movw	r22, r14
    1508:	80 e3       	ldi	r24, 0x30	; 48
    150a:	90 e0       	ldi	r25, 0x00	; 0
    150c:	0e 94 e2 0a 	call	0x15c4	; 0x15c4 <fputc>
    1510:	5a 94       	dec	r5
    1512:	f7 cf       	rjmp	.-18     	; 0x1502 <vfprintf+0x354>
    1514:	aa 94       	dec	r10
    1516:	f4 01       	movw	r30, r8
    1518:	ea 0d       	add	r30, r10
    151a:	f1 1d       	adc	r31, r1
    151c:	80 81       	ld	r24, Z
    151e:	b7 01       	movw	r22, r14
    1520:	90 e0       	ldi	r25, 0x00	; 0
    1522:	0e 94 e2 0a 	call	0x15c4	; 0x15c4 <fputc>
    1526:	a1 10       	cpse	r10, r1
    1528:	f5 cf       	rjmp	.-22     	; 0x1514 <vfprintf+0x366>
    152a:	33 20       	and	r3, r3
    152c:	09 f4       	brne	.+2      	; 0x1530 <vfprintf+0x382>
    152e:	51 ce       	rjmp	.-862    	; 0x11d2 <vfprintf+0x24>
    1530:	b7 01       	movw	r22, r14
    1532:	80 e2       	ldi	r24, 0x20	; 32
    1534:	90 e0       	ldi	r25, 0x00	; 0
    1536:	0e 94 e2 0a 	call	0x15c4	; 0x15c4 <fputc>
    153a:	3a 94       	dec	r3
    153c:	f6 cf       	rjmp	.-20     	; 0x152a <vfprintf+0x37c>
    153e:	f7 01       	movw	r30, r14
    1540:	86 81       	ldd	r24, Z+6	; 0x06
    1542:	97 81       	ldd	r25, Z+7	; 0x07
    1544:	02 c0       	rjmp	.+4      	; 0x154a <vfprintf+0x39c>
    1546:	8f ef       	ldi	r24, 0xFF	; 255
    1548:	9f ef       	ldi	r25, 0xFF	; 255
    154a:	2c 96       	adiw	r28, 0x0c	; 12
    154c:	e2 e1       	ldi	r30, 0x12	; 18
    154e:	0c 94 8e 0b 	jmp	0x171c	; 0x171c <__epilogue_restores__>

00001552 <calloc>:
    1552:	0f 93       	push	r16
    1554:	1f 93       	push	r17
    1556:	cf 93       	push	r28
    1558:	df 93       	push	r29
    155a:	86 9f       	mul	r24, r22
    155c:	80 01       	movw	r16, r0
    155e:	87 9f       	mul	r24, r23
    1560:	10 0d       	add	r17, r0
    1562:	96 9f       	mul	r25, r22
    1564:	10 0d       	add	r17, r0
    1566:	11 24       	eor	r1, r1
    1568:	c8 01       	movw	r24, r16
    156a:	0e 94 24 07 	call	0xe48	; 0xe48 <malloc>
    156e:	ec 01       	movw	r28, r24
    1570:	00 97       	sbiw	r24, 0x00	; 0
    1572:	29 f0       	breq	.+10     	; 0x157e <calloc+0x2c>
    1574:	a8 01       	movw	r20, r16
    1576:	60 e0       	ldi	r22, 0x00	; 0
    1578:	70 e0       	ldi	r23, 0x00	; 0
    157a:	0e 94 d0 0a 	call	0x15a0	; 0x15a0 <memset>
    157e:	ce 01       	movw	r24, r28
    1580:	df 91       	pop	r29
    1582:	cf 91       	pop	r28
    1584:	1f 91       	pop	r17
    1586:	0f 91       	pop	r16
    1588:	08 95       	ret

0000158a <strnlen_P>:
    158a:	fc 01       	movw	r30, r24
    158c:	05 90       	lpm	r0, Z+
    158e:	61 50       	subi	r22, 0x01	; 1
    1590:	70 40       	sbci	r23, 0x00	; 0
    1592:	01 10       	cpse	r0, r1
    1594:	d8 f7       	brcc	.-10     	; 0x158c <strnlen_P+0x2>
    1596:	80 95       	com	r24
    1598:	90 95       	com	r25
    159a:	8e 0f       	add	r24, r30
    159c:	9f 1f       	adc	r25, r31
    159e:	08 95       	ret

000015a0 <memset>:
    15a0:	dc 01       	movw	r26, r24
    15a2:	01 c0       	rjmp	.+2      	; 0x15a6 <memset+0x6>
    15a4:	6d 93       	st	X+, r22
    15a6:	41 50       	subi	r20, 0x01	; 1
    15a8:	50 40       	sbci	r21, 0x00	; 0
    15aa:	e0 f7       	brcc	.-8      	; 0x15a4 <memset+0x4>
    15ac:	08 95       	ret

000015ae <strnlen>:
    15ae:	fc 01       	movw	r30, r24
    15b0:	61 50       	subi	r22, 0x01	; 1
    15b2:	70 40       	sbci	r23, 0x00	; 0
    15b4:	01 90       	ld	r0, Z+
    15b6:	01 10       	cpse	r0, r1
    15b8:	d8 f7       	brcc	.-10     	; 0x15b0 <strnlen+0x2>
    15ba:	80 95       	com	r24
    15bc:	90 95       	com	r25
    15be:	8e 0f       	add	r24, r30
    15c0:	9f 1f       	adc	r25, r31
    15c2:	08 95       	ret

000015c4 <fputc>:
    15c4:	0f 93       	push	r16
    15c6:	1f 93       	push	r17
    15c8:	cf 93       	push	r28
    15ca:	df 93       	push	r29
    15cc:	18 2f       	mov	r17, r24
    15ce:	09 2f       	mov	r16, r25
    15d0:	eb 01       	movw	r28, r22
    15d2:	8b 81       	ldd	r24, Y+3	; 0x03
    15d4:	81 fd       	sbrc	r24, 1
    15d6:	03 c0       	rjmp	.+6      	; 0x15de <fputc+0x1a>
    15d8:	8f ef       	ldi	r24, 0xFF	; 255
    15da:	9f ef       	ldi	r25, 0xFF	; 255
    15dc:	20 c0       	rjmp	.+64     	; 0x161e <fputc+0x5a>
    15de:	82 ff       	sbrs	r24, 2
    15e0:	10 c0       	rjmp	.+32     	; 0x1602 <fputc+0x3e>
    15e2:	4e 81       	ldd	r20, Y+6	; 0x06
    15e4:	5f 81       	ldd	r21, Y+7	; 0x07
    15e6:	2c 81       	ldd	r18, Y+4	; 0x04
    15e8:	3d 81       	ldd	r19, Y+5	; 0x05
    15ea:	42 17       	cp	r20, r18
    15ec:	53 07       	cpc	r21, r19
    15ee:	7c f4       	brge	.+30     	; 0x160e <fputc+0x4a>
    15f0:	e8 81       	ld	r30, Y
    15f2:	f9 81       	ldd	r31, Y+1	; 0x01
    15f4:	9f 01       	movw	r18, r30
    15f6:	2f 5f       	subi	r18, 0xFF	; 255
    15f8:	3f 4f       	sbci	r19, 0xFF	; 255
    15fa:	39 83       	std	Y+1, r19	; 0x01
    15fc:	28 83       	st	Y, r18
    15fe:	10 83       	st	Z, r17
    1600:	06 c0       	rjmp	.+12     	; 0x160e <fputc+0x4a>
    1602:	e8 85       	ldd	r30, Y+8	; 0x08
    1604:	f9 85       	ldd	r31, Y+9	; 0x09
    1606:	81 2f       	mov	r24, r17
    1608:	09 95       	icall
    160a:	89 2b       	or	r24, r25
    160c:	29 f7       	brne	.-54     	; 0x15d8 <fputc+0x14>
    160e:	2e 81       	ldd	r18, Y+6	; 0x06
    1610:	3f 81       	ldd	r19, Y+7	; 0x07
    1612:	2f 5f       	subi	r18, 0xFF	; 255
    1614:	3f 4f       	sbci	r19, 0xFF	; 255
    1616:	3f 83       	std	Y+7, r19	; 0x07
    1618:	2e 83       	std	Y+6, r18	; 0x06
    161a:	81 2f       	mov	r24, r17
    161c:	90 2f       	mov	r25, r16
    161e:	df 91       	pop	r29
    1620:	cf 91       	pop	r28
    1622:	1f 91       	pop	r17
    1624:	0f 91       	pop	r16
    1626:	08 95       	ret

00001628 <__ultoa_invert>:
    1628:	fa 01       	movw	r30, r20
    162a:	aa 27       	eor	r26, r26
    162c:	28 30       	cpi	r18, 0x08	; 8
    162e:	51 f1       	breq	.+84     	; 0x1684 <__ultoa_invert+0x5c>
    1630:	20 31       	cpi	r18, 0x10	; 16
    1632:	81 f1       	breq	.+96     	; 0x1694 <__ultoa_invert+0x6c>
    1634:	e8 94       	clt
    1636:	6f 93       	push	r22
    1638:	6e 7f       	andi	r22, 0xFE	; 254
    163a:	6e 5f       	subi	r22, 0xFE	; 254
    163c:	7f 4f       	sbci	r23, 0xFF	; 255
    163e:	8f 4f       	sbci	r24, 0xFF	; 255
    1640:	9f 4f       	sbci	r25, 0xFF	; 255
    1642:	af 4f       	sbci	r26, 0xFF	; 255
    1644:	b1 e0       	ldi	r27, 0x01	; 1
    1646:	3e d0       	rcall	.+124    	; 0x16c4 <__ultoa_invert+0x9c>
    1648:	b4 e0       	ldi	r27, 0x04	; 4
    164a:	3c d0       	rcall	.+120    	; 0x16c4 <__ultoa_invert+0x9c>
    164c:	67 0f       	add	r22, r23
    164e:	78 1f       	adc	r23, r24
    1650:	89 1f       	adc	r24, r25
    1652:	9a 1f       	adc	r25, r26
    1654:	a1 1d       	adc	r26, r1
    1656:	68 0f       	add	r22, r24
    1658:	79 1f       	adc	r23, r25
    165a:	8a 1f       	adc	r24, r26
    165c:	91 1d       	adc	r25, r1
    165e:	a1 1d       	adc	r26, r1
    1660:	6a 0f       	add	r22, r26
    1662:	71 1d       	adc	r23, r1
    1664:	81 1d       	adc	r24, r1
    1666:	91 1d       	adc	r25, r1
    1668:	a1 1d       	adc	r26, r1
    166a:	20 d0       	rcall	.+64     	; 0x16ac <__ultoa_invert+0x84>
    166c:	09 f4       	brne	.+2      	; 0x1670 <__ultoa_invert+0x48>
    166e:	68 94       	set
    1670:	3f 91       	pop	r19
    1672:	2a e0       	ldi	r18, 0x0A	; 10
    1674:	26 9f       	mul	r18, r22
    1676:	11 24       	eor	r1, r1
    1678:	30 19       	sub	r19, r0
    167a:	30 5d       	subi	r19, 0xD0	; 208
    167c:	31 93       	st	Z+, r19
    167e:	de f6       	brtc	.-74     	; 0x1636 <__ultoa_invert+0xe>
    1680:	cf 01       	movw	r24, r30
    1682:	08 95       	ret
    1684:	46 2f       	mov	r20, r22
    1686:	47 70       	andi	r20, 0x07	; 7
    1688:	40 5d       	subi	r20, 0xD0	; 208
    168a:	41 93       	st	Z+, r20
    168c:	b3 e0       	ldi	r27, 0x03	; 3
    168e:	0f d0       	rcall	.+30     	; 0x16ae <__ultoa_invert+0x86>
    1690:	c9 f7       	brne	.-14     	; 0x1684 <__ultoa_invert+0x5c>
    1692:	f6 cf       	rjmp	.-20     	; 0x1680 <__ultoa_invert+0x58>
    1694:	46 2f       	mov	r20, r22
    1696:	4f 70       	andi	r20, 0x0F	; 15
    1698:	40 5d       	subi	r20, 0xD0	; 208
    169a:	4a 33       	cpi	r20, 0x3A	; 58
    169c:	18 f0       	brcs	.+6      	; 0x16a4 <__ultoa_invert+0x7c>
    169e:	49 5d       	subi	r20, 0xD9	; 217
    16a0:	31 fd       	sbrc	r19, 1
    16a2:	40 52       	subi	r20, 0x20	; 32
    16a4:	41 93       	st	Z+, r20
    16a6:	02 d0       	rcall	.+4      	; 0x16ac <__ultoa_invert+0x84>
    16a8:	a9 f7       	brne	.-22     	; 0x1694 <__ultoa_invert+0x6c>
    16aa:	ea cf       	rjmp	.-44     	; 0x1680 <__ultoa_invert+0x58>
    16ac:	b4 e0       	ldi	r27, 0x04	; 4
    16ae:	a6 95       	lsr	r26
    16b0:	97 95       	ror	r25
    16b2:	87 95       	ror	r24
    16b4:	77 95       	ror	r23
    16b6:	67 95       	ror	r22
    16b8:	ba 95       	dec	r27
    16ba:	c9 f7       	brne	.-14     	; 0x16ae <__ultoa_invert+0x86>
    16bc:	00 97       	sbiw	r24, 0x00	; 0
    16be:	61 05       	cpc	r22, r1
    16c0:	71 05       	cpc	r23, r1
    16c2:	08 95       	ret
    16c4:	9b 01       	movw	r18, r22
    16c6:	ac 01       	movw	r20, r24
    16c8:	0a 2e       	mov	r0, r26
    16ca:	06 94       	lsr	r0
    16cc:	57 95       	ror	r21
    16ce:	47 95       	ror	r20
    16d0:	37 95       	ror	r19
    16d2:	27 95       	ror	r18
    16d4:	ba 95       	dec	r27
    16d6:	c9 f7       	brne	.-14     	; 0x16ca <__ultoa_invert+0xa2>
    16d8:	62 0f       	add	r22, r18
    16da:	73 1f       	adc	r23, r19
    16dc:	84 1f       	adc	r24, r20
    16de:	95 1f       	adc	r25, r21
    16e0:	a0 1d       	adc	r26, r0
    16e2:	08 95       	ret

000016e4 <__prologue_saves__>:
    16e4:	2f 92       	push	r2
    16e6:	3f 92       	push	r3
    16e8:	4f 92       	push	r4
    16ea:	5f 92       	push	r5
    16ec:	6f 92       	push	r6
    16ee:	7f 92       	push	r7
    16f0:	8f 92       	push	r8
    16f2:	9f 92       	push	r9
    16f4:	af 92       	push	r10
    16f6:	bf 92       	push	r11
    16f8:	cf 92       	push	r12
    16fa:	df 92       	push	r13
    16fc:	ef 92       	push	r14
    16fe:	ff 92       	push	r15
    1700:	0f 93       	push	r16
    1702:	1f 93       	push	r17
    1704:	cf 93       	push	r28
    1706:	df 93       	push	r29
    1708:	cd b7       	in	r28, 0x3d	; 61
    170a:	de b7       	in	r29, 0x3e	; 62
    170c:	ca 1b       	sub	r28, r26
    170e:	db 0b       	sbc	r29, r27
    1710:	0f b6       	in	r0, 0x3f	; 63
    1712:	f8 94       	cli
    1714:	de bf       	out	0x3e, r29	; 62
    1716:	0f be       	out	0x3f, r0	; 63
    1718:	cd bf       	out	0x3d, r28	; 61
    171a:	09 94       	ijmp

0000171c <__epilogue_restores__>:
    171c:	2a 88       	ldd	r2, Y+18	; 0x12
    171e:	39 88       	ldd	r3, Y+17	; 0x11
    1720:	48 88       	ldd	r4, Y+16	; 0x10
    1722:	5f 84       	ldd	r5, Y+15	; 0x0f
    1724:	6e 84       	ldd	r6, Y+14	; 0x0e
    1726:	7d 84       	ldd	r7, Y+13	; 0x0d
    1728:	8c 84       	ldd	r8, Y+12	; 0x0c
    172a:	9b 84       	ldd	r9, Y+11	; 0x0b
    172c:	aa 84       	ldd	r10, Y+10	; 0x0a
    172e:	b9 84       	ldd	r11, Y+9	; 0x09
    1730:	c8 84       	ldd	r12, Y+8	; 0x08
    1732:	df 80       	ldd	r13, Y+7	; 0x07
    1734:	ee 80       	ldd	r14, Y+6	; 0x06
    1736:	fd 80       	ldd	r15, Y+5	; 0x05
    1738:	0c 81       	ldd	r16, Y+4	; 0x04
    173a:	1b 81       	ldd	r17, Y+3	; 0x03
    173c:	aa 81       	ldd	r26, Y+2	; 0x02
    173e:	b9 81       	ldd	r27, Y+1	; 0x01
    1740:	ce 0f       	add	r28, r30
    1742:	d1 1d       	adc	r29, r1
    1744:	0f b6       	in	r0, 0x3f	; 63
    1746:	f8 94       	cli
    1748:	de bf       	out	0x3e, r29	; 62
    174a:	0f be       	out	0x3f, r0	; 63
    174c:	cd bf       	out	0x3d, r28	; 61
    174e:	ed 01       	movw	r28, r26
    1750:	08 95       	ret

00001752 <_exit>:
    1752:	f8 94       	cli

00001754 <__stop_program>:
    1754:	ff cf       	rjmp	.-2      	; 0x1754 <__stop_program>
