
lab1.elf:     file format elf32-avr

Sections:
Idx Name          Size      VMA       LMA       File off  Algn
  0 .data         00000120  00800100  000018ca  0000195e  2**0
                  CONTENTS, ALLOC, LOAD, DATA
  1 .text         000018ca  00000000  00000000  00000094  2**1
                  CONTENTS, ALLOC, LOAD, READONLY, CODE
  2 .bss          00000022  00800220  00800220  00001a7e  2**0
                  ALLOC
  3 .comment      0000005c  00000000  00000000  00001a7e  2**0
                  CONTENTS, READONLY
  4 .debug_aranges 000002b0  00000000  00000000  00001ada  2**0
                  CONTENTS, READONLY, DEBUGGING
  5 .debug_info   00002d1b  00000000  00000000  00001d8a  2**0
                  CONTENTS, READONLY, DEBUGGING
  6 .debug_abbrev 00001129  00000000  00000000  00004aa5  2**0
                  CONTENTS, READONLY, DEBUGGING
  7 .debug_line   00001038  00000000  00000000  00005bce  2**0
                  CONTENTS, READONLY, DEBUGGING
  8 .debug_frame  0000067c  00000000  00000000  00006c08  2**2
                  CONTENTS, READONLY, DEBUGGING
  9 .debug_str    000009d2  00000000  00000000  00007284  2**0
                  CONTENTS, READONLY, DEBUGGING
 10 .debug_loc    00001e34  00000000  00000000  00007c56  2**0
                  CONTENTS, READONLY, DEBUGGING
 11 .debug_ranges 00000210  00000000  00000000  00009a8a  2**0
                  CONTENTS, READONLY, DEBUGGING

Disassembly of section .text:

00000000 <__vectors>:
       0:	0c 94 2d 01 	jmp	0x25a	; 0x25a <__ctors_end>
       4:	0c 94 4a 01 	jmp	0x294	; 0x294 <__bad_interrupt>
       8:	0c 94 4a 01 	jmp	0x294	; 0x294 <__bad_interrupt>
       c:	0c 94 93 04 	jmp	0x926	; 0x926 <__vector_3>
      10:	0c 94 4a 01 	jmp	0x294	; 0x294 <__bad_interrupt>
      14:	0c 94 4a 01 	jmp	0x294	; 0x294 <__bad_interrupt>
      18:	0c 94 4a 01 	jmp	0x294	; 0x294 <__bad_interrupt>
      1c:	0c 94 4a 01 	jmp	0x294	; 0x294 <__bad_interrupt>
      20:	0c 94 4a 01 	jmp	0x294	; 0x294 <__bad_interrupt>
      24:	0c 94 4a 01 	jmp	0x294	; 0x294 <__bad_interrupt>
      28:	0c 94 4a 01 	jmp	0x294	; 0x294 <__bad_interrupt>
      2c:	0c 94 4a 01 	jmp	0x294	; 0x294 <__bad_interrupt>
      30:	0c 94 4a 01 	jmp	0x294	; 0x294 <__bad_interrupt>
      34:	0c 94 4a 01 	jmp	0x294	; 0x294 <__bad_interrupt>
      38:	0c 94 4a 01 	jmp	0x294	; 0x294 <__bad_interrupt>
      3c:	0c 94 4a 01 	jmp	0x294	; 0x294 <__bad_interrupt>
      40:	0c 94 4a 01 	jmp	0x294	; 0x294 <__bad_interrupt>
      44:	0c 94 4a 01 	jmp	0x294	; 0x294 <__bad_interrupt>
      48:	0c 94 4a 01 	jmp	0x294	; 0x294 <__bad_interrupt>
      4c:	0c 94 4a 01 	jmp	0x294	; 0x294 <__bad_interrupt>
      50:	0c 94 4a 01 	jmp	0x294	; 0x294 <__bad_interrupt>
      54:	0c 94 4a 01 	jmp	0x294	; 0x294 <__bad_interrupt>
      58:	0c 94 4a 01 	jmp	0x294	; 0x294 <__bad_interrupt>
      5c:	0c 94 4a 01 	jmp	0x294	; 0x294 <__bad_interrupt>
      60:	0c 94 4a 01 	jmp	0x294	; 0x294 <__bad_interrupt>
      64:	0c 94 4a 01 	jmp	0x294	; 0x294 <__bad_interrupt>
      68:	0c 94 4a 01 	jmp	0x294	; 0x294 <__bad_interrupt>
      6c:	0c 94 4a 01 	jmp	0x294	; 0x294 <__bad_interrupt>

00000070 <__trampolines_end>:
      70:	00 00       	nop
      72:	00 00       	nop
      74:	00 00       	nop
      76:	00 5f       	subi	r16, 0xF0	; 240
      78:	00 00       	nop
      7a:	00 07       	cpc	r16, r16
      7c:	00 07       	cpc	r16, r16
      7e:	00 14       	cp	r0, r0
      80:	7f 14       	cp	r7, r15
      82:	7f 14       	cp	r7, r15
      84:	24 2a       	or	r2, r20
      86:	7f 2a       	or	r7, r31
      88:	12 23       	and	r17, r18
      8a:	13 08       	sbc	r1, r3
      8c:	64 62       	ori	r22, 0x24	; 36
      8e:	36 49       	sbci	r19, 0x96	; 150
      90:	55 22       	and	r5, r21
      92:	50 00       	.word	0x0050	; ????
      94:	05 03       	mulsu	r16, r21
      96:	00 00       	nop
      98:	00 1c       	adc	r0, r0
      9a:	22 41       	sbci	r18, 0x12	; 18
      9c:	00 00       	nop
      9e:	41 22       	and	r4, r17
      a0:	1c 00       	.word	0x001c	; ????
      a2:	08 2a       	or	r0, r24
      a4:	1c 2a       	or	r1, r28
      a6:	08 08       	sbc	r0, r8
      a8:	08 3e       	cpi	r16, 0xE8	; 232
      aa:	08 08       	sbc	r0, r8
      ac:	00 50       	subi	r16, 0x00	; 0
      ae:	30 00       	.word	0x0030	; ????
      b0:	00 08       	sbc	r0, r0
      b2:	08 08       	sbc	r0, r8
      b4:	08 08       	sbc	r0, r8
      b6:	00 60       	ori	r16, 0x00	; 0
      b8:	60 00       	.word	0x0060	; ????
      ba:	00 20       	and	r0, r0
      bc:	10 08       	sbc	r1, r0
      be:	04 02       	muls	r16, r20
      c0:	3e 51       	subi	r19, 0x1E	; 30
      c2:	49 45       	sbci	r20, 0x59	; 89
      c4:	3e 00       	.word	0x003e	; ????
      c6:	42 7f       	andi	r20, 0xF2	; 242
      c8:	40 00       	.word	0x0040	; ????
      ca:	42 61       	ori	r20, 0x12	; 18
      cc:	51 49       	sbci	r21, 0x91	; 145
      ce:	46 21       	and	r20, r6
      d0:	41 45       	sbci	r20, 0x51	; 81
      d2:	4b 31       	cpi	r20, 0x1B	; 27
      d4:	18 14       	cp	r1, r8
      d6:	12 7f       	andi	r17, 0xF2	; 242
      d8:	10 27       	eor	r17, r16
      da:	45 45       	sbci	r20, 0x55	; 85
      dc:	45 39       	cpi	r20, 0x95	; 149
      de:	3c 4a       	sbci	r19, 0xAC	; 172
      e0:	49 49       	sbci	r20, 0x99	; 153
      e2:	30 01       	movw	r6, r0
      e4:	71 09       	sbc	r23, r1
      e6:	05 03       	mulsu	r16, r21
      e8:	36 49       	sbci	r19, 0x96	; 150
      ea:	49 49       	sbci	r20, 0x99	; 153
      ec:	36 06       	cpc	r3, r22
      ee:	49 49       	sbci	r20, 0x99	; 153
      f0:	29 1e       	adc	r2, r25
      f2:	00 36       	cpi	r16, 0x60	; 96
      f4:	36 00       	.word	0x0036	; ????
      f6:	00 00       	nop
      f8:	56 36       	cpi	r21, 0x66	; 102
      fa:	00 00       	nop
      fc:	00 08       	sbc	r0, r0
      fe:	14 22       	and	r1, r20
     100:	41 14       	cp	r4, r1
     102:	14 14       	cp	r1, r4
     104:	14 14       	cp	r1, r4
     106:	41 22       	and	r4, r17
     108:	14 08       	sbc	r1, r4
     10a:	00 02       	muls	r16, r16
     10c:	01 51       	subi	r16, 0x11	; 17
     10e:	09 06       	cpc	r0, r25
     110:	32 49       	sbci	r19, 0x92	; 146
     112:	79 41       	sbci	r23, 0x19	; 25
     114:	3e 7e       	andi	r19, 0xEE	; 238
     116:	11 11       	cpse	r17, r1
     118:	11 7e       	andi	r17, 0xE1	; 225
     11a:	7f 49       	sbci	r23, 0x9F	; 159
     11c:	49 49       	sbci	r20, 0x99	; 153
     11e:	36 3e       	cpi	r19, 0xE6	; 230
     120:	41 41       	sbci	r20, 0x11	; 17
     122:	41 22       	and	r4, r17
     124:	7f 41       	sbci	r23, 0x1F	; 31
     126:	41 22       	and	r4, r17
     128:	1c 7f       	andi	r17, 0xFC	; 252
     12a:	49 49       	sbci	r20, 0x99	; 153
     12c:	49 41       	sbci	r20, 0x19	; 25
     12e:	7f 09       	sbc	r23, r15
     130:	09 01       	movw	r0, r18
     132:	01 3e       	cpi	r16, 0xE1	; 225
     134:	41 41       	sbci	r20, 0x11	; 17
     136:	51 32       	cpi	r21, 0x21	; 33
     138:	7f 08       	sbc	r7, r15
     13a:	08 08       	sbc	r0, r8
     13c:	7f 00       	.word	0x007f	; ????
     13e:	41 7f       	andi	r20, 0xF1	; 241
     140:	41 00       	.word	0x0041	; ????
     142:	20 40       	sbci	r18, 0x00	; 0
     144:	41 3f       	cpi	r20, 0xF1	; 241
     146:	01 7f       	andi	r16, 0xF1	; 241
     148:	08 14       	cp	r0, r8
     14a:	22 41       	sbci	r18, 0x12	; 18
     14c:	7f 40       	sbci	r23, 0x0F	; 15
     14e:	40 40       	sbci	r20, 0x00	; 0
     150:	40 7f       	andi	r20, 0xF0	; 240
     152:	02 04       	cpc	r0, r2
     154:	02 7f       	andi	r16, 0xF2	; 242
     156:	7f 04       	cpc	r7, r15
     158:	08 10       	cpse	r0, r8
     15a:	7f 3e       	cpi	r23, 0xEF	; 239
     15c:	41 41       	sbci	r20, 0x11	; 17
     15e:	41 3e       	cpi	r20, 0xE1	; 225
     160:	7f 09       	sbc	r23, r15
     162:	09 09       	sbc	r16, r9
     164:	06 3e       	cpi	r16, 0xE6	; 230
     166:	41 51       	subi	r20, 0x11	; 17
     168:	21 5e       	subi	r18, 0xE1	; 225
     16a:	7f 09       	sbc	r23, r15
     16c:	19 29       	or	r17, r9
     16e:	46 46       	sbci	r20, 0x66	; 102
     170:	49 49       	sbci	r20, 0x99	; 153
     172:	49 31       	cpi	r20, 0x19	; 25
     174:	01 01       	movw	r0, r2
     176:	7f 01       	movw	r14, r30
     178:	01 3f       	cpi	r16, 0xF1	; 241
     17a:	40 40       	sbci	r20, 0x00	; 0
     17c:	40 3f       	cpi	r20, 0xF0	; 240
     17e:	1f 20       	and	r1, r15
     180:	40 20       	and	r4, r0
     182:	1f 7f       	andi	r17, 0xFF	; 255
     184:	20 18       	sub	r2, r0
     186:	20 7f       	andi	r18, 0xF0	; 240
     188:	63 14       	cp	r6, r3
     18a:	08 14       	cp	r0, r8
     18c:	63 03       	mulsu	r22, r19
     18e:	04 78       	andi	r16, 0x84	; 132
     190:	04 03       	mulsu	r16, r20
     192:	61 51       	subi	r22, 0x11	; 17
     194:	49 45       	sbci	r20, 0x59	; 89
     196:	43 00       	.word	0x0043	; ????
     198:	00 7f       	andi	r16, 0xF0	; 240
     19a:	41 41       	sbci	r20, 0x11	; 17
     19c:	02 04       	cpc	r0, r2
     19e:	08 10       	cpse	r0, r8
     1a0:	20 41       	sbci	r18, 0x10	; 16
     1a2:	41 7f       	andi	r20, 0xF1	; 241
     1a4:	00 00       	nop
     1a6:	04 02       	muls	r16, r20
     1a8:	01 02       	muls	r16, r17
     1aa:	04 40       	sbci	r16, 0x04	; 4
     1ac:	40 40       	sbci	r20, 0x00	; 0
     1ae:	40 40       	sbci	r20, 0x00	; 0
     1b0:	00 01       	movw	r0, r0
     1b2:	02 04       	cpc	r0, r2
     1b4:	00 20       	and	r0, r0
     1b6:	54 54       	subi	r21, 0x44	; 68
     1b8:	54 78       	andi	r21, 0x84	; 132
     1ba:	7f 48       	sbci	r23, 0x8F	; 143
     1bc:	44 44       	sbci	r20, 0x44	; 68
     1be:	38 38       	cpi	r19, 0x88	; 136
     1c0:	44 44       	sbci	r20, 0x44	; 68
     1c2:	44 20       	and	r4, r4
     1c4:	38 44       	sbci	r19, 0x48	; 72
     1c6:	44 48       	sbci	r20, 0x84	; 132
     1c8:	7f 38       	cpi	r23, 0x8F	; 143
     1ca:	54 54       	subi	r21, 0x44	; 68
     1cc:	54 18       	sub	r5, r4
     1ce:	08 7e       	andi	r16, 0xE8	; 232
     1d0:	09 01       	movw	r0, r18
     1d2:	02 08       	sbc	r0, r2
     1d4:	14 54       	subi	r17, 0x44	; 68
     1d6:	54 3c       	cpi	r21, 0xC4	; 196
     1d8:	7f 08       	sbc	r7, r15
     1da:	04 04       	cpc	r0, r4
     1dc:	78 00       	.word	0x0078	; ????
     1de:	44 7d       	andi	r20, 0xD4	; 212
     1e0:	40 00       	.word	0x0040	; ????
     1e2:	20 40       	sbci	r18, 0x00	; 0
     1e4:	44 3d       	cpi	r20, 0xD4	; 212
     1e6:	00 00       	nop
     1e8:	7f 10       	cpse	r7, r15
     1ea:	28 44       	sbci	r18, 0x48	; 72
     1ec:	00 41       	sbci	r16, 0x10	; 16
     1ee:	7f 40       	sbci	r23, 0x0F	; 15
     1f0:	00 7c       	andi	r16, 0xC0	; 192
     1f2:	04 18       	sub	r0, r4
     1f4:	04 78       	andi	r16, 0x84	; 132
     1f6:	7c 08       	sbc	r7, r12
     1f8:	04 04       	cpc	r0, r4
     1fa:	78 38       	cpi	r23, 0x88	; 136
     1fc:	44 44       	sbci	r20, 0x44	; 68
     1fe:	44 38       	cpi	r20, 0x84	; 132
     200:	7c 14       	cp	r7, r12
     202:	14 14       	cp	r1, r4
     204:	08 08       	sbc	r0, r8
     206:	14 14       	cp	r1, r4
     208:	18 7c       	andi	r17, 0xC8	; 200
     20a:	7c 08       	sbc	r7, r12
     20c:	04 04       	cpc	r0, r4
     20e:	08 48       	sbci	r16, 0x88	; 136
     210:	54 54       	subi	r21, 0x44	; 68
     212:	54 20       	and	r5, r4
     214:	04 3f       	cpi	r16, 0xF4	; 244
     216:	44 40       	sbci	r20, 0x04	; 4
     218:	20 3c       	cpi	r18, 0xC0	; 192
     21a:	40 40       	sbci	r20, 0x00	; 0
     21c:	20 7c       	andi	r18, 0xC0	; 192
     21e:	1c 20       	and	r1, r12
     220:	40 20       	and	r4, r0
     222:	1c 3c       	cpi	r17, 0xCC	; 204
     224:	40 30       	cpi	r20, 0x00	; 0
     226:	40 3c       	cpi	r20, 0xC0	; 192
     228:	44 28       	or	r4, r4
     22a:	10 28       	or	r1, r0
     22c:	44 0c       	add	r4, r4
     22e:	50 50       	subi	r21, 0x00	; 0
     230:	50 3c       	cpi	r21, 0xC0	; 192
     232:	44 64       	ori	r20, 0x44	; 68
     234:	54 4c       	sbci	r21, 0xC4	; 196
     236:	44 00       	.word	0x0044	; ????
     238:	08 36       	cpi	r16, 0x68	; 104
     23a:	41 00       	.word	0x0041	; ????
     23c:	00 00       	nop
     23e:	7f 00       	.word	0x007f	; ????
     240:	00 00       	nop
     242:	41 36       	cpi	r20, 0x61	; 97
     244:	08 00       	.word	0x0008	; ????
     246:	02 01       	movw	r0, r4
     248:	03 02       	muls	r16, r19
     24a:	01 7e       	andi	r16, 0xE1	; 225
     24c:	11 7f       	andi	r17, 0xF1	; 241
     24e:	51 51       	subi	r21, 0x11	; 17
     250:	24 54       	subi	r18, 0x44	; 68
     252:	78 54       	subi	r23, 0x48	; 72
     254:	58 10       	cpse	r5, r8
     256:	27 20       	and	r2, r7
     258:	27 10       	cpse	r2, r7

0000025a <__ctors_end>:
     25a:	11 24       	eor	r1, r1
     25c:	1f be       	out	0x3f, r1	; 63
     25e:	cf ef       	ldi	r28, 0xFF	; 255
     260:	d4 e0       	ldi	r29, 0x04	; 4
     262:	de bf       	out	0x3e, r29	; 62
     264:	cd bf       	out	0x3d, r28	; 61

00000266 <__do_copy_data>:
     266:	12 e0       	ldi	r17, 0x02	; 2
     268:	a0 e0       	ldi	r26, 0x00	; 0
     26a:	b1 e0       	ldi	r27, 0x01	; 1
     26c:	ea ec       	ldi	r30, 0xCA	; 202
     26e:	f8 e1       	ldi	r31, 0x18	; 24
     270:	02 c0       	rjmp	.+4      	; 0x276 <__do_copy_data+0x10>
     272:	05 90       	lpm	r0, Z+
     274:	0d 92       	st	X+, r0
     276:	a0 32       	cpi	r26, 0x20	; 32
     278:	b1 07       	cpc	r27, r17
     27a:	d9 f7       	brne	.-10     	; 0x272 <__do_copy_data+0xc>

0000027c <__do_clear_bss>:
     27c:	22 e0       	ldi	r18, 0x02	; 2
     27e:	a0 e2       	ldi	r26, 0x20	; 32
     280:	b2 e0       	ldi	r27, 0x02	; 2
     282:	01 c0       	rjmp	.+2      	; 0x286 <.do_clear_bss_start>

00000284 <.do_clear_bss_loop>:
     284:	1d 92       	st	X+, r1

00000286 <.do_clear_bss_start>:
     286:	a2 34       	cpi	r26, 0x42	; 66
     288:	b2 07       	cpc	r27, r18
     28a:	e1 f7       	brne	.-8      	; 0x284 <.do_clear_bss_loop>
     28c:	0e 94 ee 03 	call	0x7dc	; 0x7dc <main>
     290:	0c 94 63 0c 	jmp	0x18c6	; 0x18c6 <_exit>

00000294 <__bad_interrupt>:
     294:	0c 94 00 00 	jmp	0	; 0x0 <__vectors>

00000298 <can_init>:
     298:	0e 94 60 03 	call	0x6c0	; 0x6c0 <mcp2515_init>
     29c:	43 e0       	ldi	r20, 0x03	; 3
     29e:	63 e0       	ldi	r22, 0x03	; 3
     2a0:	8b e2       	ldi	r24, 0x2B	; 43
     2a2:	0e 94 92 03 	call	0x724	; 0x724 <mcp2515_bit_modify>
     2a6:	60 e0       	ldi	r22, 0x00	; 0
     2a8:	80 e2       	ldi	r24, 0x20	; 32
     2aa:	0e 94 48 03 	call	0x690	; 0x690 <mcp2515_write>
     2ae:	60 e0       	ldi	r22, 0x00	; 0
     2b0:	81 e2       	ldi	r24, 0x21	; 33
     2b2:	0e 94 48 03 	call	0x690	; 0x690 <mcp2515_write>
     2b6:	60 e0       	ldi	r22, 0x00	; 0
     2b8:	84 e2       	ldi	r24, 0x24	; 36
     2ba:	0e 94 48 03 	call	0x690	; 0x690 <mcp2515_write>
     2be:	60 e0       	ldi	r22, 0x00	; 0
     2c0:	85 e2       	ldi	r24, 0x25	; 37
     2c2:	0e 94 48 03 	call	0x690	; 0x690 <mcp2515_write>
     2c6:	40 e0       	ldi	r20, 0x00	; 0
     2c8:	60 ee       	ldi	r22, 0xE0	; 224
     2ca:	8f e0       	ldi	r24, 0x0F	; 15
     2cc:	0e 94 92 03 	call	0x724	; 0x724 <mcp2515_bit_modify>
     2d0:	08 95       	ret

000002d2 <can_send_message>:
     2d2:	ef 92       	push	r14
     2d4:	ff 92       	push	r15
     2d6:	0f 93       	push	r16
     2d8:	1f 93       	push	r17
     2da:	cf 93       	push	r28
     2dc:	df 93       	push	r29
     2de:	7c 01       	movw	r14, r24
     2e0:	80 e3       	ldi	r24, 0x30	; 48
     2e2:	0e 94 3a 03 	call	0x674	; 0x674 <mcp2515_read>
     2e6:	83 fd       	sbrc	r24, 3
     2e8:	fb cf       	rjmp	.-10     	; 0x2e0 <can_send_message+0xe>
     2ea:	f7 01       	movw	r30, r14
     2ec:	60 81       	ld	r22, Z
     2ee:	62 95       	swap	r22
     2f0:	66 0f       	add	r22, r22
     2f2:	60 7e       	andi	r22, 0xE0	; 224
     2f4:	82 e3       	ldi	r24, 0x32	; 50
     2f6:	0e 94 48 03 	call	0x690	; 0x690 <mcp2515_write>
     2fa:	f7 01       	movw	r30, r14
     2fc:	60 81       	ld	r22, Z
     2fe:	71 81       	ldd	r23, Z+1	; 0x01
     300:	76 95       	lsr	r23
     302:	67 95       	ror	r22
     304:	76 95       	lsr	r23
     306:	67 95       	ror	r22
     308:	76 95       	lsr	r23
     30a:	67 95       	ror	r22
     30c:	81 e3       	ldi	r24, 0x31	; 49
     30e:	0e 94 48 03 	call	0x690	; 0x690 <mcp2515_write>
     312:	f7 01       	movw	r30, r14
     314:	62 89       	ldd	r22, Z+18	; 0x12
     316:	85 e3       	ldi	r24, 0x35	; 53
     318:	0e 94 48 03 	call	0x690	; 0x690 <mcp2515_write>
     31c:	f7 01       	movw	r30, r14
     31e:	82 89       	ldd	r24, Z+18	; 0x12
     320:	89 30       	cpi	r24, 0x09	; 9
     322:	18 f4       	brcc	.+6      	; 0x32a <can_send_message+0x58>
     324:	81 11       	cpse	r24, r1
     326:	0a c0       	rjmp	.+20     	; 0x33c <can_send_message+0x6a>
     328:	1d c0       	rjmp	.+58     	; 0x364 <can_send_message+0x92>
     32a:	86 e0       	ldi	r24, 0x06	; 6
     32c:	91 e0       	ldi	r25, 0x01	; 1
     32e:	9f 93       	push	r25
     330:	8f 93       	push	r24
     332:	0e 94 50 09 	call	0x12a0	; 0x12a0 <printf>
     336:	0f 90       	pop	r0
     338:	0f 90       	pop	r0
     33a:	18 c0       	rjmp	.+48     	; 0x36c <can_send_message+0x9a>
     33c:	87 01       	movw	r16, r14
     33e:	0e 5f       	subi	r16, 0xFE	; 254
     340:	1f 4f       	sbci	r17, 0xFF	; 255
     342:	c0 e0       	ldi	r28, 0x00	; 0
     344:	d0 e0       	ldi	r29, 0x00	; 0
     346:	f8 01       	movw	r30, r16
     348:	60 81       	ld	r22, Z
     34a:	0e 5f       	subi	r16, 0xFE	; 254
     34c:	1f 4f       	sbci	r17, 0xFF	; 255
     34e:	8c 2f       	mov	r24, r28
     350:	8a 5c       	subi	r24, 0xCA	; 202
     352:	0e 94 48 03 	call	0x690	; 0x690 <mcp2515_write>
     356:	21 96       	adiw	r28, 0x01	; 1
     358:	f7 01       	movw	r30, r14
     35a:	22 89       	ldd	r18, Z+18	; 0x12
     35c:	30 e0       	ldi	r19, 0x00	; 0
     35e:	c2 17       	cp	r28, r18
     360:	d3 07       	cpc	r29, r19
     362:	8c f3       	brlt	.-30     	; 0x346 <can_send_message+0x74>
     364:	80 e0       	ldi	r24, 0x00	; 0
     366:	90 e0       	ldi	r25, 0x00	; 0
     368:	0e 94 72 03 	call	0x6e4	; 0x6e4 <mcp2515_request_to_send>
     36c:	df 91       	pop	r29
     36e:	cf 91       	pop	r28
     370:	1f 91       	pop	r17
     372:	0f 91       	pop	r16
     374:	ff 90       	pop	r15
     376:	ef 90       	pop	r14
     378:	08 95       	ret

0000037a <can_receive_message>:
     37a:	9f 92       	push	r9
     37c:	af 92       	push	r10
     37e:	bf 92       	push	r11
     380:	cf 92       	push	r12
     382:	df 92       	push	r13
     384:	ef 92       	push	r14
     386:	ff 92       	push	r15
     388:	0f 93       	push	r16
     38a:	1f 93       	push	r17
     38c:	cf 93       	push	r28
     38e:	df 93       	push	r29
     390:	7c 01       	movw	r14, r24
     392:	fc 01       	movw	r30, r24
     394:	11 82       	std	Z+1, r1	; 0x01
     396:	10 82       	st	Z, r1
     398:	12 8a       	std	Z+18, r1	; 0x12
     39a:	13 82       	std	Z+3, r1	; 0x03
     39c:	12 82       	std	Z+2, r1	; 0x02
     39e:	8c e2       	ldi	r24, 0x2C	; 44
     3a0:	0e 94 3a 03 	call	0x674	; 0x674 <mcp2515_read>
     3a4:	80 ff       	sbrs	r24, 0
     3a6:	51 c0       	rjmp	.+162    	; 0x44a <can_receive_message+0xd0>
     3a8:	81 e6       	ldi	r24, 0x61	; 97
     3aa:	0e 94 3a 03 	call	0x674	; 0x674 <mcp2515_read>
     3ae:	c8 2f       	mov	r28, r24
     3b0:	d0 e0       	ldi	r29, 0x00	; 0
     3b2:	82 e6       	ldi	r24, 0x62	; 98
     3b4:	0e 94 3a 03 	call	0x674	; 0x674 <mcp2515_read>
     3b8:	90 e0       	ldi	r25, 0x00	; 0
     3ba:	5e 01       	movw	r10, r28
     3bc:	aa 0c       	add	r10, r10
     3be:	bb 1c       	adc	r11, r11
     3c0:	aa 0c       	add	r10, r10
     3c2:	bb 1c       	adc	r11, r11
     3c4:	aa 0c       	add	r10, r10
     3c6:	bb 1c       	adc	r11, r11
     3c8:	96 95       	lsr	r25
     3ca:	87 95       	ror	r24
     3cc:	92 95       	swap	r25
     3ce:	82 95       	swap	r24
     3d0:	8f 70       	andi	r24, 0x0F	; 15
     3d2:	89 27       	eor	r24, r25
     3d4:	9f 70       	andi	r25, 0x0F	; 15
     3d6:	89 27       	eor	r24, r25
     3d8:	a8 2a       	or	r10, r24
     3da:	b9 2a       	or	r11, r25
     3dc:	85 e6       	ldi	r24, 0x65	; 101
     3de:	0e 94 3a 03 	call	0x674	; 0x674 <mcp2515_read>
     3e2:	98 2e       	mov	r9, r24
     3e4:	f8 e0       	ldi	r31, 0x08	; 8
     3e6:	f8 17       	cp	r31, r24
     3e8:	30 f0       	brcs	.+12     	; 0x3f6 <can_receive_message+0x7c>
     3ea:	c8 2e       	mov	r12, r24
     3ec:	d1 2c       	mov	r13, r1
     3ee:	1c 14       	cp	r1, r12
     3f0:	1d 04       	cpc	r1, r13
     3f2:	64 f0       	brlt	.+24     	; 0x40c <can_receive_message+0x92>
     3f4:	1e c0       	rjmp	.+60     	; 0x432 <can_receive_message+0xb8>
     3f6:	8e e1       	ldi	r24, 0x1E	; 30
     3f8:	91 e0       	ldi	r25, 0x01	; 1
     3fa:	9f 93       	push	r25
     3fc:	8f 93       	push	r24
     3fe:	0e 94 50 09 	call	0x12a0	; 0x12a0 <printf>
     402:	0f 90       	pop	r0
     404:	0f 90       	pop	r0
     406:	80 e0       	ldi	r24, 0x00	; 0
     408:	90 e0       	ldi	r25, 0x00	; 0
     40a:	21 c0       	rjmp	.+66     	; 0x44e <can_receive_message+0xd4>
     40c:	87 01       	movw	r16, r14
     40e:	0e 5f       	subi	r16, 0xFE	; 254
     410:	1f 4f       	sbci	r17, 0xFF	; 255
     412:	c0 e0       	ldi	r28, 0x00	; 0
     414:	d0 e0       	ldi	r29, 0x00	; 0
     416:	8c 2f       	mov	r24, r28
     418:	8a 59       	subi	r24, 0x9A	; 154
     41a:	0e 94 3a 03 	call	0x674	; 0x674 <mcp2515_read>
     41e:	28 2f       	mov	r18, r24
     420:	30 e0       	ldi	r19, 0x00	; 0
     422:	f8 01       	movw	r30, r16
     424:	21 93       	st	Z+, r18
     426:	31 93       	st	Z+, r19
     428:	8f 01       	movw	r16, r30
     42a:	21 96       	adiw	r28, 0x01	; 1
     42c:	cc 15       	cp	r28, r12
     42e:	dd 05       	cpc	r29, r13
     430:	94 f3       	brlt	.-28     	; 0x416 <can_receive_message+0x9c>
     432:	f7 01       	movw	r30, r14
     434:	b1 82       	std	Z+1, r11	; 0x01
     436:	a0 82       	st	Z, r10
     438:	92 8a       	std	Z+18, r9	; 0x12
     43a:	40 e0       	ldi	r20, 0x00	; 0
     43c:	61 e0       	ldi	r22, 0x01	; 1
     43e:	8c e2       	ldi	r24, 0x2C	; 44
     440:	0e 94 92 03 	call	0x724	; 0x724 <mcp2515_bit_modify>
     444:	81 e0       	ldi	r24, 0x01	; 1
     446:	90 e0       	ldi	r25, 0x00	; 0
     448:	02 c0       	rjmp	.+4      	; 0x44e <can_receive_message+0xd4>
     44a:	81 e0       	ldi	r24, 0x01	; 1
     44c:	90 e0       	ldi	r25, 0x00	; 0
     44e:	df 91       	pop	r29
     450:	cf 91       	pop	r28
     452:	1f 91       	pop	r17
     454:	0f 91       	pop	r16
     456:	ff 90       	pop	r15
     458:	ef 90       	pop	r14
     45a:	df 90       	pop	r13
     45c:	cf 90       	pop	r12
     45e:	bf 90       	pop	r11
     460:	af 90       	pop	r10
     462:	9f 90       	pop	r9
     464:	08 95       	ret

00000466 <joy_getDirectionX>:
	return (((raw*(1.0)) / 255) * 100);
}

int joy_getDirectionX(int raw){
	
	if (raw > 28 && raw < 228){
     466:	9c 01       	movw	r18, r24
     468:	2d 51       	subi	r18, 0x1D	; 29
     46a:	31 09       	sbc	r19, r1
     46c:	27 3c       	cpi	r18, 0xC7	; 199
     46e:	31 05       	cpc	r19, r1
     470:	48 f0       	brcs	.+18     	; 0x484 <joy_getDirectionX+0x1e>
		return NEUTRAL;
	}
	else if(raw >= 228){
     472:	31 e0       	ldi	r19, 0x01	; 1
     474:	20 e0       	ldi	r18, 0x00	; 0
     476:	84 3e       	cpi	r24, 0xE4	; 228
     478:	91 05       	cpc	r25, r1
     47a:	0c f4       	brge	.+2      	; 0x47e <joy_getDirectionX+0x18>
     47c:	30 e0       	ldi	r19, 0x00	; 0
}

int joy_getDirectionX(int raw){
	
	if (raw > 28 && raw < 228){
		return NEUTRAL;
     47e:	83 2f       	mov	r24, r19
     480:	92 2f       	mov	r25, r18
     482:	08 95       	ret
     484:	84 e0       	ldi	r24, 0x04	; 4
     486:	90 e0       	ldi	r25, 0x00	; 0
	}
	else if(raw >= 228){
		return RIGHT;
	}
	return LEFT;
}
     488:	08 95       	ret

0000048a <joy_getDirectionY>:

int joy_getDirectionY(int raw){

	if (raw > 8 && raw < 248){ //127.5+-19.5
     48a:	9c 01       	movw	r18, r24
     48c:	29 50       	subi	r18, 0x09	; 9
     48e:	31 09       	sbc	r19, r1
     490:	2f 3e       	cpi	r18, 0xEF	; 239
     492:	31 05       	cpc	r19, r1
     494:	30 f0       	brcs	.+12     	; 0x4a2 <joy_getDirectionY+0x18>
		return NEUTRAL;
	}
	else if(raw >= 248){
     496:	88 3f       	cpi	r24, 0xF8	; 248
     498:	91 05       	cpc	r25, r1
     49a:	34 f0       	brlt	.+12     	; 0x4a8 <joy_getDirectionY+0x1e>
		return UP;
     49c:	83 e0       	ldi	r24, 0x03	; 3
     49e:	90 e0       	ldi	r25, 0x00	; 0
     4a0:	08 95       	ret
}

int joy_getDirectionY(int raw){

	if (raw > 8 && raw < 248){ //127.5+-19.5
		return NEUTRAL;
     4a2:	84 e0       	ldi	r24, 0x04	; 4
     4a4:	90 e0       	ldi	r25, 0x00	; 0
     4a6:	08 95       	ret
	}
	else if(raw >= 248){
		return UP;
	}
	return DOWN;
     4a8:	82 e0       	ldi	r24, 0x02	; 2
     4aa:	90 e0       	ldi	r25, 0x00	; 0
}
     4ac:	08 95       	ret

000004ae <joy_readButton>:

int joy_readButton(int button){ // Button 0, 1 or 2
	if (button == 2){
     4ae:	82 30       	cpi	r24, 0x02	; 2
     4b0:	91 05       	cpc	r25, r1
     4b2:	39 f4       	brne	.+14     	; 0x4c2 <joy_readButton+0x14>
		if ((PINB & (1<<(PB0+button))) > 0){
     4b4:	31 e0       	ldi	r19, 0x01	; 1
     4b6:	20 e0       	ldi	r18, 0x00	; 0
     4b8:	b2 99       	sbic	0x16, 2	; 22
     4ba:	30 e0       	ldi	r19, 0x00	; 0
			return 0; //så: om joystickknappen ikke er trykket inn, vil verdien i parentesen være 4. om knappen ikke er trykket inn, returnerer vi 0
     4bc:	83 2f       	mov	r24, r19
     4be:	92 2f       	mov	r25, r18
     4c0:	08 95       	ret
		}
		return 1; //ellers returnerer vi 1
	}
	if (button == 1){
     4c2:	81 30       	cpi	r24, 0x01	; 1
     4c4:	91 05       	cpc	r25, r1
     4c6:	39 f4       	brne	.+14     	; 0x4d6 <joy_readButton+0x28>
		if ((PINB & (1<<(PB0+button))) > 0){
     4c8:	31 e0       	ldi	r19, 0x01	; 1
     4ca:	20 e0       	ldi	r18, 0x00	; 0
     4cc:	b1 9b       	sbis	0x16, 1	; 22
     4ce:	30 e0       	ldi	r19, 0x00	; 0
}

int joy_readButton(int button){ // Button 0, 1 or 2
	if (button == 2){
		if ((PINB & (1<<(PB0+button))) > 0){
			return 0; //så: om joystickknappen ikke er trykket inn, vil verdien i parentesen være 4. om knappen ikke er trykket inn, returnerer vi 0
     4d0:	83 2f       	mov	r24, r19
     4d2:	92 2f       	mov	r25, r18
     4d4:	08 95       	ret
		if ((PINB & (1<<(PB0+button))) > 0){
			return 1; //så om høyreknappen er trykket inn, vil verdien i parentesen være 2. Og da returnerer vi 1
		}
		return 0;
	}
	return (PINB & (1<<(PB0+button)));
     4d6:	26 b3       	in	r18, 0x16	; 22
     4d8:	41 e0       	ldi	r20, 0x01	; 1
     4da:	50 e0       	ldi	r21, 0x00	; 0
     4dc:	ba 01       	movw	r22, r20
     4de:	02 c0       	rjmp	.+4      	; 0x4e4 <joy_readButton+0x36>
     4e0:	66 0f       	add	r22, r22
     4e2:	77 1f       	adc	r23, r23
     4e4:	8a 95       	dec	r24
     4e6:	e2 f7       	brpl	.-8      	; 0x4e0 <joy_readButton+0x32>
     4e8:	cb 01       	movw	r24, r22
     4ea:	30 e0       	ldi	r19, 0x00	; 0
     4ec:	82 23       	and	r24, r18
     4ee:	93 23       	and	r25, r19
}
     4f0:	08 95       	ret

000004f2 <joy_doesDirectionChange>:

int joy_doesDirectionChange(void){
     4f2:	0f 93       	push	r16
     4f4:	1f 93       	push	r17
     4f6:	cf 93       	push	r28
     4f8:	df 93       	push	r29
	int joyCurrentDirectionY = joy_getDirectionY(adc_read(1));
     4fa:	81 e0       	ldi	r24, 0x01	; 1
     4fc:	90 e0       	ldi	r25, 0x00	; 0
     4fe:	0e 94 d1 03 	call	0x7a2	; 0x7a2 <adc_read>
     502:	0e 94 45 02 	call	0x48a	; 0x48a <joy_getDirectionY>
     506:	ec 01       	movw	r28, r24
	int joyCurrentDirectionX = joy_getDirectionX(adc_read(0));
     508:	80 e0       	ldi	r24, 0x00	; 0
     50a:	90 e0       	ldi	r25, 0x00	; 0
     50c:	0e 94 d1 03 	call	0x7a2	; 0x7a2 <adc_read>
     510:	0e 94 33 02 	call	0x466	; 0x466 <joy_getDirectionX>
     514:	8c 01       	movw	r16, r24
	int joyCurrentDirection = NEUTRAL;
	
	int doesDirectionChange = 0;
	
	if(joyLastDirectionY != joyCurrentDirectionY){ //Prioriterer opp og ned
     516:	80 91 2e 02 	lds	r24, 0x022E
     51a:	90 91 2f 02 	lds	r25, 0x022F
     51e:	8c 17       	cp	r24, r28
     520:	9d 07       	cpc	r25, r29
     522:	21 f0       	breq	.+8      	; 0x52c <__stack+0x2d>
		joyCurrentDirection = joyCurrentDirectionY;
		oled_clear_screen(); //Skjermen må oppdateres
     524:	0e 94 cb 06 	call	0xd96	; 0xd96 <oled_clear_screen>
	int joyCurrentDirection = NEUTRAL;
	
	int doesDirectionChange = 0;
	
	if(joyLastDirectionY != joyCurrentDirectionY){ //Prioriterer opp og ned
		joyCurrentDirection = joyCurrentDirectionY;
     528:	9e 01       	movw	r18, r28
     52a:	0b c0       	rjmp	.+22     	; 0x542 <__stack+0x43>
		oled_clear_screen(); //Skjermen må oppdateres
		doesDirectionChange = 1;
		
	}
	else if(joyLastDirectionX != joyCurrentDirectionX){
     52c:	80 91 24 02 	lds	r24, 0x0224
     530:	90 91 25 02 	lds	r25, 0x0225
     534:	80 17       	cp	r24, r16
     536:	91 07       	cpc	r25, r17
     538:	09 f4       	brne	.+2      	; 0x53c <__stack+0x3d>
     53a:	7e c0       	rjmp	.+252    	; 0x638 <__stack+0x139>
		joyCurrentDirection = joyCurrentDirectionX;
		oled_clear_screen(); //skjermen må oppdateres
     53c:	0e 94 cb 06 	call	0xd96	; 0xd96 <oled_clear_screen>
		oled_clear_screen(); //Skjermen må oppdateres
		doesDirectionChange = 1;
		
	}
	else if(joyLastDirectionX != joyCurrentDirectionX){
		joyCurrentDirection = joyCurrentDirectionX;
     540:	98 01       	movw	r18, r16
		doesDirectionChange = 1;
	}
	else{
		doesDirectionChange = 0;
	}
	switch(joyCurrentDirection){
     542:	21 30       	cpi	r18, 0x01	; 1
     544:	31 05       	cpc	r19, r1
     546:	61 f1       	breq	.+88     	; 0x5a0 <__stack+0xa1>
     548:	24 f4       	brge	.+8      	; 0x552 <__stack+0x53>
     54a:	23 2b       	or	r18, r19
     54c:	09 f4       	brne	.+2      	; 0x550 <__stack+0x51>
     54e:	61 c0       	rjmp	.+194    	; 0x612 <__stack+0x113>
     550:	76 c0       	rjmp	.+236    	; 0x63e <__stack+0x13f>
     552:	22 30       	cpi	r18, 0x02	; 2
     554:	31 05       	cpc	r19, r1
     556:	21 f0       	breq	.+8      	; 0x560 <__stack+0x61>
     558:	23 30       	cpi	r18, 0x03	; 3
     55a:	31 05       	cpc	r19, r1
     55c:	89 f0       	breq	.+34     	; 0x580 <__stack+0x81>
     55e:	6f c0       	rjmp	.+222    	; 0x63e <__stack+0x13f>
		case DOWN:
			//oled_print("DOWN", 6 , 70);
			if(currentSelection->next != NULL){
     560:	e0 91 30 02 	lds	r30, 0x0230
     564:	f0 91 31 02 	lds	r31, 0x0231
     568:	82 81       	ldd	r24, Z+2	; 0x02
     56a:	93 81       	ldd	r25, Z+3	; 0x03
     56c:	00 97       	sbiw	r24, 0x00	; 0
     56e:	09 f4       	brne	.+2      	; 0x572 <__stack+0x73>
     570:	69 c0       	rjmp	.+210    	; 0x644 <__stack+0x145>
				currentSelection = currentSelection->next;
     572:	90 93 31 02 	sts	0x0231, r25
     576:	80 93 30 02 	sts	0x0230, r24
     57a:	81 e0       	ldi	r24, 0x01	; 1
     57c:	90 e0       	ldi	r25, 0x00	; 0
     57e:	6d c0       	rjmp	.+218    	; 0x65a <__stack+0x15b>
			}
				
			break;
		case UP:
			//oled_print("UP", 6,70);
			if(currentSelection->previous != NULL){
     580:	e0 91 30 02 	lds	r30, 0x0230
     584:	f0 91 31 02 	lds	r31, 0x0231
     588:	84 81       	ldd	r24, Z+4	; 0x04
     58a:	95 81       	ldd	r25, Z+5	; 0x05
     58c:	00 97       	sbiw	r24, 0x00	; 0
     58e:	09 f4       	brne	.+2      	; 0x592 <__stack+0x93>
     590:	5c c0       	rjmp	.+184    	; 0x64a <__stack+0x14b>
				currentSelection = currentSelection->previous;
     592:	90 93 31 02 	sts	0x0231, r25
     596:	80 93 30 02 	sts	0x0230, r24
     59a:	81 e0       	ldi	r24, 0x01	; 1
     59c:	90 e0       	ldi	r25, 0x00	; 0
     59e:	5d c0       	rjmp	.+186    	; 0x65a <__stack+0x15b>
			}
			break;
		case RIGHT:
			if(currentSelection->child != NULL){
     5a0:	e0 91 30 02 	lds	r30, 0x0230
     5a4:	f0 91 31 02 	lds	r31, 0x0231
     5a8:	86 81       	ldd	r24, Z+6	; 0x06
     5aa:	97 81       	ldd	r25, Z+7	; 0x07
     5ac:	00 97       	sbiw	r24, 0x00	; 0
     5ae:	59 f0       	breq	.+22     	; 0x5c6 <__stack+0xc7>
				currentSelection = currentSelection->child;
     5b0:	90 93 31 02 	sts	0x0231, r25
     5b4:	80 93 30 02 	sts	0x0230, r24
				currentHead = currentSelection;
     5b8:	90 93 35 02 	sts	0x0235, r25
     5bc:	80 93 34 02 	sts	0x0234, r24
     5c0:	81 e0       	ldi	r24, 0x01	; 1
     5c2:	90 e0       	ldi	r25, 0x00	; 0
     5c4:	4a c0       	rjmp	.+148    	; 0x65a <__stack+0x15b>
			}
			else if(currentSelection->name == "Easy"){
     5c6:	80 81       	ld	r24, Z
     5c8:	91 81       	ldd	r25, Z+1	; 0x01
     5ca:	21 e0       	ldi	r18, 0x01	; 1
     5cc:	87 33       	cpi	r24, 0x37	; 55
     5ce:	92 07       	cpc	r25, r18
     5d0:	39 f4       	brne	.+14     	; 0x5e0 <__stack+0xe1>
				GAMESTATUS = PLAYING_EASY;
     5d2:	81 e0       	ldi	r24, 0x01	; 1
     5d4:	90 e0       	ldi	r25, 0x00	; 0
     5d6:	90 93 21 02 	sts	0x0221, r25
     5da:	80 93 20 02 	sts	0x0220, r24
     5de:	3d c0       	rjmp	.+122    	; 0x65a <__stack+0x15b>
				
				
			}
			else if(currentSelection->name == "Normal"){
     5e0:	21 e0       	ldi	r18, 0x01	; 1
     5e2:	8c 33       	cpi	r24, 0x3C	; 60
     5e4:	92 07       	cpc	r25, r18
     5e6:	49 f4       	brne	.+18     	; 0x5fa <__stack+0xfb>
				GAMESTATUS = PLAYING_NORMAL;
     5e8:	82 e0       	ldi	r24, 0x02	; 2
     5ea:	90 e0       	ldi	r25, 0x00	; 0
     5ec:	90 93 21 02 	sts	0x0221, r25
     5f0:	80 93 20 02 	sts	0x0220, r24
     5f4:	81 e0       	ldi	r24, 0x01	; 1
     5f6:	90 e0       	ldi	r25, 0x00	; 0
     5f8:	30 c0       	rjmp	.+96     	; 0x65a <__stack+0x15b>
			
				
			}
			else if(currentSelection->name == "Hard"){
     5fa:	83 54       	subi	r24, 0x43	; 67
     5fc:	91 40       	sbci	r25, 0x01	; 1
     5fe:	41 f5       	brne	.+80     	; 0x650 <__stack+0x151>
				GAMESTATUS = PLAYING_HARD;
     600:	83 e0       	ldi	r24, 0x03	; 3
     602:	90 e0       	ldi	r25, 0x00	; 0
     604:	90 93 21 02 	sts	0x0221, r25
     608:	80 93 20 02 	sts	0x0220, r24
     60c:	81 e0       	ldi	r24, 0x01	; 1
     60e:	90 e0       	ldi	r25, 0x00	; 0
     610:	24 c0       	rjmp	.+72     	; 0x65a <__stack+0x15b>
				
			}
			
			break;
		case LEFT:
			if(currentSelection->parent != NULL){
     612:	e0 91 30 02 	lds	r30, 0x0230
     616:	f0 91 31 02 	lds	r31, 0x0231
     61a:	80 85       	ldd	r24, Z+8	; 0x08
     61c:	91 85       	ldd	r25, Z+9	; 0x09
     61e:	00 97       	sbiw	r24, 0x00	; 0
     620:	d1 f0       	breq	.+52     	; 0x656 <__stack+0x157>
				currentSelection = currentSelection->parent;
     622:	90 93 31 02 	sts	0x0231, r25
     626:	80 93 30 02 	sts	0x0230, r24
				currentHead = currentSelection;
     62a:	90 93 35 02 	sts	0x0235, r25
     62e:	80 93 34 02 	sts	0x0234, r24
     632:	81 e0       	ldi	r24, 0x01	; 1
     634:	90 e0       	ldi	r25, 0x00	; 0
     636:	11 c0       	rjmp	.+34     	; 0x65a <__stack+0x15b>
		joyCurrentDirection = joyCurrentDirectionX;
		oled_clear_screen(); //skjermen må oppdateres
		doesDirectionChange = 1;
	}
	else{
		doesDirectionChange = 0;
     638:	80 e0       	ldi	r24, 0x00	; 0
     63a:	90 e0       	ldi	r25, 0x00	; 0
     63c:	0e c0       	rjmp	.+28     	; 0x65a <__stack+0x15b>
	}
	switch(joyCurrentDirection){
     63e:	81 e0       	ldi	r24, 0x01	; 1
     640:	90 e0       	ldi	r25, 0x00	; 0
     642:	0b c0       	rjmp	.+22     	; 0x65a <__stack+0x15b>
     644:	81 e0       	ldi	r24, 0x01	; 1
     646:	90 e0       	ldi	r25, 0x00	; 0
     648:	08 c0       	rjmp	.+16     	; 0x65a <__stack+0x15b>
     64a:	81 e0       	ldi	r24, 0x01	; 1
     64c:	90 e0       	ldi	r25, 0x00	; 0
     64e:	05 c0       	rjmp	.+10     	; 0x65a <__stack+0x15b>
     650:	81 e0       	ldi	r24, 0x01	; 1
     652:	90 e0       	ldi	r25, 0x00	; 0
     654:	02 c0       	rjmp	.+4      	; 0x65a <__stack+0x15b>
     656:	81 e0       	ldi	r24, 0x01	; 1
     658:	90 e0       	ldi	r25, 0x00	; 0
		//default:
			
		//Burde ikke skje
			
	}
	joyLastDirectionY = joyCurrentDirectionY; //Oppdaterer hva som var sist
     65a:	d0 93 2f 02 	sts	0x022F, r29
     65e:	c0 93 2e 02 	sts	0x022E, r28
	joyLastDirectionX = joyCurrentDirectionX;
     662:	10 93 25 02 	sts	0x0225, r17
     666:	00 93 24 02 	sts	0x0224, r16
	
	return doesDirectionChange;
}
     66a:	df 91       	pop	r29
     66c:	cf 91       	pop	r28
     66e:	1f 91       	pop	r17
     670:	0f 91       	pop	r16
     672:	08 95       	ret

00000674 <mcp2515_read>:
     674:	cf 93       	push	r28
     676:	c8 2f       	mov	r28, r24
     678:	c4 98       	cbi	0x18, 4	; 24
     67a:	83 e0       	ldi	r24, 0x03	; 3
     67c:	0e 94 b3 03 	call	0x766	; 0x766 <spi_MasterTransmit>
     680:	8c 2f       	mov	r24, r28
     682:	0e 94 b3 03 	call	0x766	; 0x766 <spi_MasterTransmit>
     686:	0e 94 b7 03 	call	0x76e	; 0x76e <spi_MasterRead>
     68a:	c4 9a       	sbi	0x18, 4	; 24
     68c:	cf 91       	pop	r28
     68e:	08 95       	ret

00000690 <mcp2515_write>:
     690:	cf 93       	push	r28
     692:	df 93       	push	r29
     694:	d8 2f       	mov	r29, r24
     696:	c6 2f       	mov	r28, r22
     698:	c4 98       	cbi	0x18, 4	; 24
     69a:	82 e0       	ldi	r24, 0x02	; 2
     69c:	0e 94 b3 03 	call	0x766	; 0x766 <spi_MasterTransmit>
     6a0:	8d 2f       	mov	r24, r29
     6a2:	0e 94 b3 03 	call	0x766	; 0x766 <spi_MasterTransmit>
     6a6:	8c 2f       	mov	r24, r28
     6a8:	0e 94 b3 03 	call	0x766	; 0x766 <spi_MasterTransmit>
     6ac:	c4 9a       	sbi	0x18, 4	; 24
     6ae:	df 91       	pop	r29
     6b0:	cf 91       	pop	r28
     6b2:	08 95       	ret

000006b4 <mcp2515_reset>:
     6b4:	c4 98       	cbi	0x18, 4	; 24
     6b6:	80 ec       	ldi	r24, 0xC0	; 192
     6b8:	0e 94 b3 03 	call	0x766	; 0x766 <spi_MasterTransmit>
     6bc:	c4 9a       	sbi	0x18, 4	; 24
     6be:	08 95       	ret

000006c0 <mcp2515_init>:
     6c0:	0e 94 aa 03 	call	0x754	; 0x754 <spi_init>
     6c4:	0e 94 5a 03 	call	0x6b4	; 0x6b4 <mcp2515_reset>
	#else
		//round up by default
		__ticks_dc = (uint32_t)(ceil(fabs(__tmp)));
	#endif

	__builtin_avr_delay_cycles(__ticks_dc);
     6c8:	83 e0       	ldi	r24, 0x03	; 3
     6ca:	8a 95       	dec	r24
     6cc:	f1 f7       	brne	.-4      	; 0x6ca <mcp2515_init+0xa>
     6ce:	00 00       	nop
     6d0:	8e e0       	ldi	r24, 0x0E	; 14
     6d2:	0e 94 3a 03 	call	0x674	; 0x674 <mcp2515_read>
     6d6:	98 2f       	mov	r25, r24
     6d8:	90 7e       	andi	r25, 0xE0	; 224
     6da:	81 e0       	ldi	r24, 0x01	; 1
     6dc:	90 38       	cpi	r25, 0x80	; 128
     6de:	09 f4       	brne	.+2      	; 0x6e2 <mcp2515_init+0x22>
     6e0:	80 e0       	ldi	r24, 0x00	; 0
     6e2:	08 95       	ret

000006e4 <mcp2515_request_to_send>:
     6e4:	c4 98       	cbi	0x18, 4	; 24
     6e6:	00 97       	sbiw	r24, 0x00	; 0
     6e8:	21 f4       	brne	.+8      	; 0x6f2 <mcp2515_request_to_send+0xe>
     6ea:	81 e8       	ldi	r24, 0x81	; 129
     6ec:	0e 94 b3 03 	call	0x766	; 0x766 <spi_MasterTransmit>
     6f0:	09 c0       	rjmp	.+18     	; 0x704 <mcp2515_request_to_send+0x20>
     6f2:	01 97       	sbiw	r24, 0x01	; 1
     6f4:	21 f4       	brne	.+8      	; 0x6fe <mcp2515_request_to_send+0x1a>
     6f6:	82 e8       	ldi	r24, 0x82	; 130
     6f8:	0e 94 b3 03 	call	0x766	; 0x766 <spi_MasterTransmit>
     6fc:	03 c0       	rjmp	.+6      	; 0x704 <mcp2515_request_to_send+0x20>
     6fe:	84 e8       	ldi	r24, 0x84	; 132
     700:	0e 94 b3 03 	call	0x766	; 0x766 <spi_MasterTransmit>
     704:	c4 9a       	sbi	0x18, 4	; 24
     706:	08 95       	ret

00000708 <mcp2515_read_status>:
     708:	cf 93       	push	r28
     70a:	c4 98       	cbi	0x18, 4	; 24
     70c:	80 ea       	ldi	r24, 0xA0	; 160
     70e:	0e 94 b3 03 	call	0x766	; 0x766 <spi_MasterTransmit>
     712:	0e 94 b7 03 	call	0x76e	; 0x76e <spi_MasterRead>
     716:	c8 2f       	mov	r28, r24
     718:	0e 94 b7 03 	call	0x76e	; 0x76e <spi_MasterRead>
     71c:	c4 9a       	sbi	0x18, 4	; 24
     71e:	8c 2f       	mov	r24, r28
     720:	cf 91       	pop	r28
     722:	08 95       	ret

00000724 <mcp2515_bit_modify>:
     724:	1f 93       	push	r17
     726:	cf 93       	push	r28
     728:	df 93       	push	r29
     72a:	18 2f       	mov	r17, r24
     72c:	d6 2f       	mov	r29, r22
     72e:	c4 2f       	mov	r28, r20
     730:	c4 98       	cbi	0x18, 4	; 24
     732:	85 e0       	ldi	r24, 0x05	; 5
     734:	0e 94 b3 03 	call	0x766	; 0x766 <spi_MasterTransmit>
     738:	81 2f       	mov	r24, r17
     73a:	0e 94 b3 03 	call	0x766	; 0x766 <spi_MasterTransmit>
     73e:	8d 2f       	mov	r24, r29
     740:	0e 94 b3 03 	call	0x766	; 0x766 <spi_MasterTransmit>
     744:	8c 2f       	mov	r24, r28
     746:	0e 94 b3 03 	call	0x766	; 0x766 <spi_MasterTransmit>
     74a:	c4 9a       	sbi	0x18, 4	; 24
     74c:	df 91       	pop	r29
     74e:	cf 91       	pop	r28
     750:	1f 91       	pop	r17
     752:	08 95       	ret

00000754 <spi_init>:
     754:	87 b3       	in	r24, 0x17	; 23
     756:	80 6a       	ori	r24, 0xA0	; 160
     758:	87 bb       	out	0x17, r24	; 23
     75a:	be 98       	cbi	0x17, 6	; 23
     75c:	81 e5       	ldi	r24, 0x51	; 81
     75e:	8d b9       	out	0x0d, r24	; 13
     760:	bc 9a       	sbi	0x17, 4	; 23
     762:	c4 9a       	sbi	0x18, 4	; 24
     764:	08 95       	ret

00000766 <spi_MasterTransmit>:
     766:	8f b9       	out	0x0f, r24	; 15
     768:	77 9b       	sbis	0x0e, 7	; 14
     76a:	fe cf       	rjmp	.-4      	; 0x768 <spi_MasterTransmit+0x2>
     76c:	08 95       	ret

0000076e <spi_MasterRead>:
     76e:	80 e0       	ldi	r24, 0x00	; 0
     770:	0e 94 b3 03 	call	0x766	; 0x766 <spi_MasterTransmit>
     774:	8f b1       	in	r24, 0x0f	; 15
     776:	08 95       	ret

00000778 <USART_Transmit>:
     778:	5d 9b       	sbis	0x0b, 5	; 11
     77a:	fe cf       	rjmp	.-4      	; 0x778 <USART_Transmit>
     77c:	8c b9       	out	0x0c, r24	; 12
     77e:	08 95       	ret

00000780 <USART_Receive>:
     780:	5f 9b       	sbis	0x0b, 7	; 11
     782:	fe cf       	rjmp	.-4      	; 0x780 <USART_Receive>
     784:	8c b1       	in	r24, 0x0c	; 12
     786:	08 95       	ret

00000788 <USART_Init>:
     788:	90 bd       	out	0x20, r25	; 32
     78a:	89 b9       	out	0x09, r24	; 9
     78c:	88 e1       	ldi	r24, 0x18	; 24
     78e:	8a b9       	out	0x0a, r24	; 10
     790:	60 ec       	ldi	r22, 0xC0	; 192
     792:	73 e0       	ldi	r23, 0x03	; 3
     794:	8c eb       	ldi	r24, 0xBC	; 188
     796:	93 e0       	ldi	r25, 0x03	; 3
     798:	0e 94 05 09 	call	0x120a	; 0x120a <fdevopen>
     79c:	08 95       	ret

0000079e <adc_init>:
*/

volatile int adcInProgress = 0;

void adc_init(void){
	DDRE &= ~(1<<DDE0); //Hvis vi skal bruke interrupt pin-en i stedet for delay (blir en slags interrupt)
     79e:	30 98       	cbi	0x06, 0	; 6
     7a0:	08 95       	ret

000007a2 <adc_read>:

uint8_t adc_read(uint8_t ch){ //ch = 0: joystick x. ch = 1: joystick y. ch = 2: slider left. ch = 3: slider right. 
	
	
	volatile char *ext_adc =(char*) 0x1400;
	*ext_adc = 0x4 + ch;
     7a2:	8c 5f       	subi	r24, 0xFC	; 252
     7a4:	80 93 00 14 	sts	0x1400, r24
     7a8:	82 e5       	ldi	r24, 0x52	; 82
     7aa:	8a 95       	dec	r24
     7ac:	f1 f7       	brne	.-4      	; 0x7aa <adc_read+0x8>
	while (adcInProgress)
	*/
	
	
	_delay_us(50);
	return *ext_adc;	
     7ae:	80 91 00 14 	lds	r24, 0x1400
}
     7b2:	08 95       	ret

000007b4 <avr_init>:
     7b4:	b8 98       	cbi	0x17, 0	; 23
     7b6:	b9 98       	cbi	0x17, 1	; 23
     7b8:	ba 98       	cbi	0x17, 2	; 23
     7ba:	c2 9a       	sbi	0x18, 2	; 24
     7bc:	f8 94       	cli
     7be:	86 b7       	in	r24, 0x36	; 54
     7c0:	8e 7f       	andi	r24, 0xFE	; 254
     7c2:	86 bf       	out	0x36, r24	; 54
     7c4:	8b b7       	in	r24, 0x3b	; 59
     7c6:	80 62       	ori	r24, 0x20	; 32
     7c8:	8b bf       	out	0x3b, r24	; 59
     7ca:	78 94       	sei
     7cc:	08 95       	ret

000007ce <extMem_init>:
     7ce:	85 b7       	in	r24, 0x35	; 53
     7d0:	80 68       	ori	r24, 0x80	; 128
     7d2:	85 bf       	out	0x35, r24	; 53
     7d4:	80 b7       	in	r24, 0x30	; 48
     7d6:	80 62       	ori	r24, 0x20	; 32
     7d8:	80 bf       	out	0x30, r24	; 48
     7da:	08 95       	ret

000007dc <main>:
};*/

int GAMESTATUS = 0;

int main(void)
{
     7dc:	cf 93       	push	r28
     7de:	df 93       	push	r29
     7e0:	cd b7       	in	r28, 0x3d	; 61
     7e2:	de b7       	in	r29, 0x3e	; 62
     7e4:	a7 97       	sbiw	r28, 0x27	; 39
     7e6:	0f b6       	in	r0, 0x3f	; 63
     7e8:	f8 94       	cli
     7ea:	de bf       	out	0x3e, r29	; 62
     7ec:	0f be       	out	0x3f, r0	; 63
     7ee:	cd bf       	out	0x3d, r28	; 61
	
	USART_Init(MYUBRR);
     7f0:	8f e1       	ldi	r24, 0x1F	; 31
     7f2:	90 e0       	ldi	r25, 0x00	; 0
     7f4:	0e 94 c4 03 	call	0x788	; 0x788 <USART_Init>
	extMem_init(); 
     7f8:	0e 94 e7 03 	call	0x7ce	; 0x7ce <extMem_init>
	
	
	avr_init();
     7fc:	0e 94 da 03 	call	0x7b4	; 0x7b4 <avr_init>
	adc_init();
     800:	0e 94 cf 03 	call	0x79e	; 0x79e <adc_init>
	oled_init();
     804:	0e 94 e4 06 	call	0xdc8	; 0xdc8 <oled_init>
	oled_clear_screen();
     808:	0e 94 cb 06 	call	0xd96	; 0xd96 <oled_clear_screen>
	menu_init();
     80c:	0e 94 a7 04 	call	0x94e	; 0x94e <menu_init>
	can_init();
     810:	0e 94 4c 01 	call	0x298	; 0x298 <can_init>
	
	can_msg yourMessage;
	GAMESTATUS = MENU;
     814:	10 92 21 02 	sts	0x0221, r1
     818:	10 92 20 02 	sts	0x0220, r1
	uint8_t gameOverValue = 0; //Initialiserer gameOver til å ikke være sann
     81c:	10 e0       	ldi	r17, 0x00	; 0
			case PLAYING_NORMAL:
				oled_clear_screen();
				menu_printGameScreen();
				oled_refresh();
				if(gameOverValue == 1){
					GAMESTATUS = GAMEOVER;
     81e:	68 94       	set
     820:	ee 24       	eor	r14, r14
     822:	e2 f8       	bld	r14, 2
     824:	f1 2c       	mov	r15, r1
     826:	1a c0       	rjmp	.+52     	; 0x85c <main+0x80>
	
	//NEED TO IMPLEMENT SLEEP
	while(1)
	{
		
		if(GAMESTATUS == PLAYING_EASY || GAMESTATUS == PLAYING_NORMAL || GAMESTATUS == PLAYING_HARD || GAMESTATUS == GAMEOVER){
     828:	80 91 20 02 	lds	r24, 0x0220
     82c:	90 91 21 02 	lds	r25, 0x0221
     830:	01 97       	sbiw	r24, 0x01	; 1
     832:	04 97       	sbiw	r24, 0x04	; 4
     834:	98 f4       	brcc	.+38     	; 0x85c <main+0x80>
			
			
			//-------------------- SEND CAN MESSAGE --------------------------
			multiboardInfo_update(&yourMessage);
     836:	ce 01       	movw	r24, r28
     838:	01 96       	adiw	r24, 0x01	; 1
     83a:	0e 94 54 06 	call	0xca8	; 0xca8 <multiboardInfo_update>
			can_send_message(&yourMessage);
     83e:	ce 01       	movw	r24, r28
     840:	01 96       	adiw	r24, 0x01	; 1
     842:	0e 94 69 01 	call	0x2d2	; 0x2d2 <can_send_message>
			
			
			
			
			//-------------------- RECEIVE CAN MESSAGE ------------------------
			volatile uint8_t statusReg = mcp2515_read_status();					//Leser statusregisteret og sjekker om receive-bufferet har fått inn noe
     846:	0e 94 84 03 	call	0x708	; 0x708 <mcp2515_read_status>
     84a:	8f a3       	std	Y+39, r24	; 0x27
			if(test_bit(statusReg, 0)){
     84c:	8f a1       	ldd	r24, Y+39	; 0x27
     84e:	80 ff       	sbrs	r24, 0
     850:	05 c0       	rjmp	.+10     	; 0x85c <main+0x80>
				can_msg mottatt;
				can_receive_message(&mottatt);
     852:	ce 01       	movw	r24, r28
     854:	44 96       	adiw	r24, 0x14	; 20
     856:	0e 94 bd 01 	call	0x37a	; 0x37a <can_receive_message>
				gameOverValue = mottatt.data[0];
     85a:	1e 89       	ldd	r17, Y+22	; 0x16
		}
		
		
		
		
		switch(GAMESTATUS){
     85c:	80 91 20 02 	lds	r24, 0x0220
     860:	90 91 21 02 	lds	r25, 0x0221
     864:	82 30       	cpi	r24, 0x02	; 2
     866:	91 05       	cpc	r25, r1
     868:	11 f1       	breq	.+68     	; 0x8ae <main+0xd2>
     86a:	2c f4       	brge	.+10     	; 0x876 <main+0x9a>
     86c:	00 97       	sbiw	r24, 0x00	; 0
     86e:	49 f0       	breq	.+18     	; 0x882 <main+0xa6>
     870:	01 97       	sbiw	r24, 0x01	; 1
     872:	81 f0       	breq	.+32     	; 0x894 <main+0xb8>
     874:	d9 cf       	rjmp	.-78     	; 0x828 <main+0x4c>
     876:	83 30       	cpi	r24, 0x03	; 3
     878:	91 05       	cpc	r25, r1
     87a:	39 f1       	breq	.+78     	; 0x8ca <main+0xee>
     87c:	04 97       	sbiw	r24, 0x04	; 4
     87e:	99 f1       	breq	.+102    	; 0x8e6 <main+0x10a>
     880:	d3 cf       	rjmp	.-90     	; 0x828 <main+0x4c>
			case MENU:
				if(joy_doesDirectionChange()){
     882:	0e 94 79 02 	call	0x4f2	; 0x4f2 <joy_doesDirectionChange>
     886:	89 2b       	or	r24, r25
     888:	79 f2       	breq	.-98     	; 0x828 <main+0x4c>
					
					menu_save();
     88a:	0e 94 ff 05 	call	0xbfe	; 0xbfe <menu_save>
					oled_refresh();
     88e:	0e 94 9d 06 	call	0xd3a	; 0xd3a <oled_refresh>
     892:	ca cf       	rjmp	.-108    	; 0x828 <main+0x4c>
				}
				
				break;
			case PLAYING_EASY:
				oled_clear_screen(); //Litt dumt at alt refresher hver gang i main nå da :) Kan ha counter som blir en første gang slik at den ikke cleares hver gang, men kun første gang
     894:	0e 94 cb 06 	call	0xd96	; 0xd96 <oled_clear_screen>
				menu_printGameScreen();
     898:	0e 94 33 06 	call	0xc66	; 0xc66 <menu_printGameScreen>
				oled_refresh();
     89c:	0e 94 9d 06 	call	0xd3a	; 0xd3a <oled_refresh>
				if(gameOverValue == 1){
     8a0:	11 30       	cpi	r17, 0x01	; 1
     8a2:	11 f6       	brne	.-124    	; 0x828 <main+0x4c>
					GAMESTATUS = GAMEOVER;
     8a4:	f0 92 21 02 	sts	0x0221, r15
     8a8:	e0 92 20 02 	sts	0x0220, r14
     8ac:	c4 cf       	rjmp	.-120    	; 0x836 <main+0x5a>
				
				break;
				
				
			case PLAYING_NORMAL:
				oled_clear_screen();
     8ae:	0e 94 cb 06 	call	0xd96	; 0xd96 <oled_clear_screen>
				menu_printGameScreen();
     8b2:	0e 94 33 06 	call	0xc66	; 0xc66 <menu_printGameScreen>
				oled_refresh();
     8b6:	0e 94 9d 06 	call	0xd3a	; 0xd3a <oled_refresh>
				if(gameOverValue == 1){
     8ba:	11 30       	cpi	r17, 0x01	; 1
     8bc:	09 f0       	breq	.+2      	; 0x8c0 <main+0xe4>
     8be:	b4 cf       	rjmp	.-152    	; 0x828 <main+0x4c>
					GAMESTATUS = GAMEOVER;
     8c0:	f0 92 21 02 	sts	0x0221, r15
     8c4:	e0 92 20 02 	sts	0x0220, r14
     8c8:	b6 cf       	rjmp	.-148    	; 0x836 <main+0x5a>
				}
				break;
				
				
			case PLAYING_HARD:
				oled_clear_screen();
     8ca:	0e 94 cb 06 	call	0xd96	; 0xd96 <oled_clear_screen>
				menu_printGameScreen();
     8ce:	0e 94 33 06 	call	0xc66	; 0xc66 <menu_printGameScreen>
				oled_refresh();
     8d2:	0e 94 9d 06 	call	0xd3a	; 0xd3a <oled_refresh>
				if(gameOverValue == 1){
     8d6:	11 30       	cpi	r17, 0x01	; 1
     8d8:	09 f0       	breq	.+2      	; 0x8dc <main+0x100>
     8da:	a6 cf       	rjmp	.-180    	; 0x828 <main+0x4c>
					GAMESTATUS = GAMEOVER;
     8dc:	f0 92 21 02 	sts	0x0221, r15
     8e0:	e0 92 20 02 	sts	0x0220, r14
     8e4:	a8 cf       	rjmp	.-176    	; 0x836 <main+0x5a>
				}
				break;
				
				
			case GAMEOVER:
				oled_clear_screen();
     8e6:	0e 94 cb 06 	call	0xd96	; 0xd96 <oled_clear_screen>
				
				/*------------------ OLED PRINT -----------------*/
				sram_save_string("GAME OVER",3,40);
     8ea:	48 e2       	ldi	r20, 0x28	; 40
     8ec:	63 e0       	ldi	r22, 0x03	; 3
     8ee:	88 e4       	ldi	r24, 0x48	; 72
     8f0:	91 e0       	ldi	r25, 0x01	; 1
     8f2:	0e 94 8b 07 	call	0xf16	; 0xf16 <sram_save_string>
				sram_save_string("TOUCH LEFT BUTTON", 5,20);
     8f6:	44 e1       	ldi	r20, 0x14	; 20
     8f8:	65 e0       	ldi	r22, 0x05	; 5
     8fa:	82 e5       	ldi	r24, 0x52	; 82
     8fc:	91 e0       	ldi	r25, 0x01	; 1
     8fe:	0e 94 8b 07 	call	0xf16	; 0xf16 <sram_save_string>
				printf("GAME OVER\n");
     902:	88 e4       	ldi	r24, 0x48	; 72
     904:	91 e0       	ldi	r25, 0x01	; 1
     906:	0e 94 64 09 	call	0x12c8	; 0x12c8 <puts>
				oled_refresh();
     90a:	0e 94 9d 06 	call	0xd3a	; 0xd3a <oled_refresh>
				
				/*------------LEFT BUTTON PRESSED ---------------*/
				if(joy_readButton(0)){
     90e:	80 e0       	ldi	r24, 0x00	; 0
     910:	90 e0       	ldi	r25, 0x00	; 0
     912:	0e 94 57 02 	call	0x4ae	; 0x4ae <joy_readButton>
     916:	89 2b       	or	r24, r25
     918:	09 f4       	brne	.+2      	; 0x91c <main+0x140>
     91a:	86 cf       	rjmp	.-244    	; 0x828 <main+0x4c>
					GAMESTATUS = MENU;
     91c:	10 92 21 02 	sts	0x0221, r1
     920:	10 92 20 02 	sts	0x0220, r1
     924:	9b cf       	rjmp	.-202    	; 0x85c <main+0x80>

00000926 <__vector_3>:
	
	
	
}

ISR(INT2_vect){
     926:	1f 92       	push	r1
     928:	0f 92       	push	r0
     92a:	0f b6       	in	r0, 0x3f	; 63
     92c:	0f 92       	push	r0
     92e:	11 24       	eor	r1, r1
     930:	8f 93       	push	r24
     932:	9f 93       	push	r25
	RECEIVE_BUFFER_INTERRUPT = 1;
     934:	81 e0       	ldi	r24, 0x01	; 1
     936:	90 e0       	ldi	r25, 0x00	; 0
     938:	90 93 23 02 	sts	0x0223, r25
     93c:	80 93 22 02 	sts	0x0222, r24
}
     940:	9f 91       	pop	r25
     942:	8f 91       	pop	r24
     944:	0f 90       	pop	r0
     946:	0f be       	out	0x3f, r0	; 63
     948:	0f 90       	pop	r0
     94a:	1f 90       	pop	r1
     94c:	18 95       	reti

0000094e <menu_init>:

node_t* currentSelection;
node_t* currentHead;
node_t* developers;

void menu_init(void){
     94e:	2f 92       	push	r2
     950:	3f 92       	push	r3
     952:	4f 92       	push	r4
     954:	5f 92       	push	r5
     956:	6f 92       	push	r6
     958:	7f 92       	push	r7
     95a:	8f 92       	push	r8
     95c:	9f 92       	push	r9
     95e:	af 92       	push	r10
     960:	bf 92       	push	r11
     962:	cf 92       	push	r12
     964:	df 92       	push	r13
     966:	ef 92       	push	r14
     968:	ff 92       	push	r15
     96a:	0f 93       	push	r16
     96c:	1f 93       	push	r17
     96e:	cf 93       	push	r28
     970:	df 93       	push	r29
     972:	00 d0       	rcall	.+0      	; 0x974 <menu_init+0x26>
     974:	00 d0       	rcall	.+0      	; 0x976 <menu_init+0x28>
     976:	00 d0       	rcall	.+0      	; 0x978 <menu_init+0x2a>
     978:	cd b7       	in	r28, 0x3d	; 61
     97a:	de b7       	in	r29, 0x3e	; 62
	
	
	node_t* newgame = malloc(sizeof(node_t)); //For å allokere nok minne av størrelse node_t
     97c:	8a e0       	ldi	r24, 0x0A	; 10
     97e:	90 e0       	ldi	r25, 0x00	; 0
     980:	0e 94 de 07 	call	0xfbc	; 0xfbc <malloc>
     984:	9e 83       	std	Y+6, r25	; 0x06
     986:	8d 83       	std	Y+5, r24	; 0x05
		node_t* easy = malloc(sizeof(node_t));
     988:	8a e0       	ldi	r24, 0x0A	; 10
     98a:	90 e0       	ldi	r25, 0x00	; 0
     98c:	0e 94 de 07 	call	0xfbc	; 0xfbc <malloc>
     990:	4c 01       	movw	r8, r24
		node_t* normal = malloc(sizeof(node_t));
     992:	8a e0       	ldi	r24, 0x0A	; 10
     994:	90 e0       	ldi	r25, 0x00	; 0
     996:	0e 94 de 07 	call	0xfbc	; 0xfbc <malloc>
     99a:	5c 01       	movw	r10, r24
		node_t* hard = malloc(sizeof(node_t));
     99c:	8a e0       	ldi	r24, 0x0A	; 10
     99e:	90 e0       	ldi	r25, 0x00	; 0
     9a0:	0e 94 de 07 	call	0xfbc	; 0xfbc <malloc>
     9a4:	9a 83       	std	Y+2, r25	; 0x02
     9a6:	89 83       	std	Y+1, r24	; 0x01
	
	node_t* highscore = malloc(sizeof(node_t));
     9a8:	8a e0       	ldi	r24, 0x0A	; 10
     9aa:	90 e0       	ldi	r25, 0x00	; 0
     9ac:	0e 94 de 07 	call	0xfbc	; 0xfbc <malloc>
     9b0:	6c 01       	movw	r12, r24
	node_t* options = malloc(sizeof(node_t));
     9b2:	8a e0       	ldi	r24, 0x0A	; 10
     9b4:	90 e0       	ldi	r25, 0x00	; 0
     9b6:	0e 94 de 07 	call	0xfbc	; 0xfbc <malloc>
     9ba:	8c 01       	movw	r16, r24
		node_t* sound = malloc(sizeof(node_t));
     9bc:	8a e0       	ldi	r24, 0x0A	; 10
     9be:	90 e0       	ldi	r25, 0x00	; 0
     9c0:	0e 94 de 07 	call	0xfbc	; 0xfbc <malloc>
     9c4:	7c 01       	movw	r14, r24
			node_t* sound_on = malloc(sizeof(node_t));
     9c6:	8a e0       	ldi	r24, 0x0A	; 10
     9c8:	90 e0       	ldi	r25, 0x00	; 0
     9ca:	0e 94 de 07 	call	0xfbc	; 0xfbc <malloc>
     9ce:	2c 01       	movw	r4, r24
			node_t* sound_off = malloc(sizeof(node_t));
     9d0:	8a e0       	ldi	r24, 0x0A	; 10
     9d2:	90 e0       	ldi	r25, 0x00	; 0
     9d4:	0e 94 de 07 	call	0xfbc	; 0xfbc <malloc>
     9d8:	9c 83       	std	Y+4, r25	; 0x04
     9da:	8b 83       	std	Y+3, r24	; 0x03
		node_t* sensitivity = malloc(sizeof(node_t));
     9dc:	8a e0       	ldi	r24, 0x0A	; 10
     9de:	90 e0       	ldi	r25, 0x00	; 0
     9e0:	0e 94 de 07 	call	0xfbc	; 0xfbc <malloc>
     9e4:	3c 01       	movw	r6, r24
	
	node_t* credits = malloc(sizeof(node_t));
     9e6:	8a e0       	ldi	r24, 0x0A	; 10
     9e8:	90 e0       	ldi	r25, 0x00	; 0
     9ea:	0e 94 de 07 	call	0xfbc	; 0xfbc <malloc>
     9ee:	1c 01       	movw	r2, r24
		developers = malloc(sizeof(node_t));
     9f0:	8a e0       	ldi	r24, 0x0A	; 10
     9f2:	90 e0       	ldi	r25, 0x00	; 0
     9f4:	0e 94 de 07 	call	0xfbc	; 0xfbc <malloc>
     9f8:	9c 01       	movw	r18, r24
     9fa:	90 93 33 02 	sts	0x0233, r25
     9fe:	80 93 32 02 	sts	0x0232, r24
	
	currentHead = malloc(sizeof(node_t));
	currentSelection = malloc(sizeof(node_t));
	
	
	currentHead = newgame;
     a02:	8d 81       	ldd	r24, Y+5	; 0x05
     a04:	9e 81       	ldd	r25, Y+6	; 0x06
     a06:	90 93 35 02 	sts	0x0235, r25
     a0a:	80 93 34 02 	sts	0x0234, r24
	//currentSelection = DER PILEN DIN PEKER NÅ
	currentSelection = newgame;
     a0e:	90 93 31 02 	sts	0x0231, r25
     a12:	80 93 30 02 	sts	0x0230, r24
		menu_defineMenuEntries(developers,"Daniel Tavakoli          Nicolas Carbone          Byggern Autumn 2017",NULL,NULL,NULL,credits);
		
}

void menu_defineMenuEntries(node_t* myNode, char* nodeName, node_t* next, node_t* previous, node_t* child, node_t* parent){
	myNode->name = nodeName;
     a16:	84 e6       	ldi	r24, 0x64	; 100
     a18:	91 e0       	ldi	r25, 0x01	; 1
     a1a:	ad 81       	ldd	r26, Y+5	; 0x05
     a1c:	be 81       	ldd	r27, Y+6	; 0x06
     a1e:	11 96       	adiw	r26, 0x01	; 1
     a20:	9c 93       	st	X, r25
     a22:	8e 93       	st	-X, r24
	myNode->previous = previous;
     a24:	15 96       	adiw	r26, 0x05	; 5
     a26:	1c 92       	st	X, r1
     a28:	1e 92       	st	-X, r1
     a2a:	14 97       	sbiw	r26, 0x04	; 4
	myNode->next = next;
     a2c:	13 96       	adiw	r26, 0x03	; 3
     a2e:	dc 92       	st	X, r13
     a30:	ce 92       	st	-X, r12
     a32:	12 97       	sbiw	r26, 0x02	; 2
	myNode->child = child;
     a34:	17 96       	adiw	r26, 0x07	; 7
     a36:	9c 92       	st	X, r9
     a38:	8e 92       	st	-X, r8
     a3a:	16 97       	sbiw	r26, 0x06	; 6
	myNode->parent = parent;
     a3c:	19 96       	adiw	r26, 0x09	; 9
     a3e:	1c 92       	st	X, r1
     a40:	1e 92       	st	-X, r1
     a42:	18 97       	sbiw	r26, 0x08	; 8
		menu_defineMenuEntries(developers,"Daniel Tavakoli          Nicolas Carbone          Byggern Autumn 2017",NULL,NULL,NULL,credits);
		
}

void menu_defineMenuEntries(node_t* myNode, char* nodeName, node_t* next, node_t* previous, node_t* child, node_t* parent){
	myNode->name = nodeName;
     a44:	87 e3       	ldi	r24, 0x37	; 55
     a46:	91 e0       	ldi	r25, 0x01	; 1
     a48:	f4 01       	movw	r30, r8
     a4a:	91 83       	std	Z+1, r25	; 0x01
     a4c:	80 83       	st	Z, r24
	myNode->previous = previous;
     a4e:	15 82       	std	Z+5, r1	; 0x05
     a50:	14 82       	std	Z+4, r1	; 0x04
	myNode->next = next;
     a52:	b3 82       	std	Z+3, r11	; 0x03
     a54:	a2 82       	std	Z+2, r10	; 0x02
	myNode->child = child;
     a56:	17 82       	std	Z+7, r1	; 0x07
     a58:	16 82       	std	Z+6, r1	; 0x06
	myNode->parent = parent;
     a5a:	b1 87       	std	Z+9, r27	; 0x09
     a5c:	a0 87       	std	Z+8, r26	; 0x08
		menu_defineMenuEntries(developers,"Daniel Tavakoli          Nicolas Carbone          Byggern Autumn 2017",NULL,NULL,NULL,credits);
		
}

void menu_defineMenuEntries(node_t* myNode, char* nodeName, node_t* next, node_t* previous, node_t* child, node_t* parent){
	myNode->name = nodeName;
     a5e:	8c e3       	ldi	r24, 0x3C	; 60
     a60:	91 e0       	ldi	r25, 0x01	; 1
     a62:	d5 01       	movw	r26, r10
     a64:	11 96       	adiw	r26, 0x01	; 1
     a66:	9c 93       	st	X, r25
     a68:	8e 93       	st	-X, r24
	myNode->previous = previous;
     a6a:	15 96       	adiw	r26, 0x05	; 5
     a6c:	9c 92       	st	X, r9
     a6e:	8e 92       	st	-X, r8
     a70:	14 97       	sbiw	r26, 0x04	; 4
	myNode->next = next;
     a72:	e9 81       	ldd	r30, Y+1	; 0x01
     a74:	fa 81       	ldd	r31, Y+2	; 0x02
     a76:	13 96       	adiw	r26, 0x03	; 3
     a78:	fc 93       	st	X, r31
     a7a:	ee 93       	st	-X, r30
     a7c:	12 97       	sbiw	r26, 0x02	; 2
	myNode->child = child;
     a7e:	17 96       	adiw	r26, 0x07	; 7
     a80:	1c 92       	st	X, r1
     a82:	1e 92       	st	-X, r1
     a84:	16 97       	sbiw	r26, 0x06	; 6
	myNode->parent = parent;
     a86:	8d 81       	ldd	r24, Y+5	; 0x05
     a88:	9e 81       	ldd	r25, Y+6	; 0x06
     a8a:	19 96       	adiw	r26, 0x09	; 9
     a8c:	9c 93       	st	X, r25
     a8e:	8e 93       	st	-X, r24
     a90:	18 97       	sbiw	r26, 0x08	; 8
		menu_defineMenuEntries(developers,"Daniel Tavakoli          Nicolas Carbone          Byggern Autumn 2017",NULL,NULL,NULL,credits);
		
}

void menu_defineMenuEntries(node_t* myNode, char* nodeName, node_t* next, node_t* previous, node_t* child, node_t* parent){
	myNode->name = nodeName;
     a92:	83 e4       	ldi	r24, 0x43	; 67
     a94:	91 e0       	ldi	r25, 0x01	; 1
     a96:	91 83       	std	Z+1, r25	; 0x01
     a98:	80 83       	st	Z, r24
	myNode->previous = previous;
     a9a:	b5 82       	std	Z+5, r11	; 0x05
     a9c:	a4 82       	std	Z+4, r10	; 0x04
	myNode->next = next;
     a9e:	13 82       	std	Z+3, r1	; 0x03
     aa0:	12 82       	std	Z+2, r1	; 0x02
	myNode->child = child;
     aa2:	17 82       	std	Z+7, r1	; 0x07
     aa4:	16 82       	std	Z+6, r1	; 0x06
	myNode->parent = parent;
     aa6:	ad 81       	ldd	r26, Y+5	; 0x05
     aa8:	be 81       	ldd	r27, Y+6	; 0x06
     aaa:	b1 87       	std	Z+9, r27	; 0x09
     aac:	a0 87       	std	Z+8, r26	; 0x08
		menu_defineMenuEntries(developers,"Daniel Tavakoli          Nicolas Carbone          Byggern Autumn 2017",NULL,NULL,NULL,credits);
		
}

void menu_defineMenuEntries(node_t* myNode, char* nodeName, node_t* next, node_t* previous, node_t* child, node_t* parent){
	myNode->name = nodeName;
     aae:	8d e6       	ldi	r24, 0x6D	; 109
     ab0:	91 e0       	ldi	r25, 0x01	; 1
     ab2:	f6 01       	movw	r30, r12
     ab4:	91 83       	std	Z+1, r25	; 0x01
     ab6:	80 83       	st	Z, r24
	myNode->previous = previous;
     ab8:	b5 83       	std	Z+5, r27	; 0x05
     aba:	a4 83       	std	Z+4, r26	; 0x04
	myNode->next = next;
     abc:	13 83       	std	Z+3, r17	; 0x03
     abe:	02 83       	std	Z+2, r16	; 0x02
	myNode->child = child;
     ac0:	17 82       	std	Z+7, r1	; 0x07
     ac2:	16 82       	std	Z+6, r1	; 0x06
	myNode->parent = parent;
     ac4:	11 86       	std	Z+9, r1	; 0x09
     ac6:	10 86       	std	Z+8, r1	; 0x08
		menu_defineMenuEntries(developers,"Daniel Tavakoli          Nicolas Carbone          Byggern Autumn 2017",NULL,NULL,NULL,credits);
		
}

void menu_defineMenuEntries(node_t* myNode, char* nodeName, node_t* next, node_t* previous, node_t* child, node_t* parent){
	myNode->name = nodeName;
     ac8:	87 e7       	ldi	r24, 0x77	; 119
     aca:	91 e0       	ldi	r25, 0x01	; 1
     acc:	d8 01       	movw	r26, r16
     ace:	11 96       	adiw	r26, 0x01	; 1
     ad0:	9c 93       	st	X, r25
     ad2:	8e 93       	st	-X, r24
	myNode->previous = previous;
     ad4:	15 96       	adiw	r26, 0x05	; 5
     ad6:	dc 92       	st	X, r13
     ad8:	ce 92       	st	-X, r12
     ada:	14 97       	sbiw	r26, 0x04	; 4
	myNode->next = next;
     adc:	13 96       	adiw	r26, 0x03	; 3
     ade:	3c 92       	st	X, r3
     ae0:	2e 92       	st	-X, r2
     ae2:	12 97       	sbiw	r26, 0x02	; 2
	myNode->child = child;
     ae4:	17 96       	adiw	r26, 0x07	; 7
     ae6:	7c 92       	st	X, r7
     ae8:	6e 92       	st	-X, r6
     aea:	16 97       	sbiw	r26, 0x06	; 6
	myNode->parent = parent;
     aec:	19 96       	adiw	r26, 0x09	; 9
     aee:	1c 92       	st	X, r1
     af0:	1e 92       	st	-X, r1
     af2:	18 97       	sbiw	r26, 0x08	; 8
		menu_defineMenuEntries(developers,"Daniel Tavakoli          Nicolas Carbone          Byggern Autumn 2017",NULL,NULL,NULL,credits);
		
}

void menu_defineMenuEntries(node_t* myNode, char* nodeName, node_t* next, node_t* previous, node_t* child, node_t* parent){
	myNode->name = nodeName;
     af4:	8f e7       	ldi	r24, 0x7F	; 127
     af6:	91 e0       	ldi	r25, 0x01	; 1
     af8:	f3 01       	movw	r30, r6
     afa:	91 83       	std	Z+1, r25	; 0x01
     afc:	80 83       	st	Z, r24
	myNode->previous = previous;
     afe:	15 82       	std	Z+5, r1	; 0x05
     b00:	14 82       	std	Z+4, r1	; 0x04
	myNode->next = next;
     b02:	f3 82       	std	Z+3, r15	; 0x03
     b04:	e2 82       	std	Z+2, r14	; 0x02
	myNode->child = child;
     b06:	17 82       	std	Z+7, r1	; 0x07
     b08:	16 82       	std	Z+6, r1	; 0x06
	myNode->parent = parent;
     b0a:	11 87       	std	Z+9, r17	; 0x09
     b0c:	00 87       	std	Z+8, r16	; 0x08
		menu_defineMenuEntries(developers,"Daniel Tavakoli          Nicolas Carbone          Byggern Autumn 2017",NULL,NULL,NULL,credits);
		
}

void menu_defineMenuEntries(node_t* myNode, char* nodeName, node_t* next, node_t* previous, node_t* child, node_t* parent){
	myNode->name = nodeName;
     b0e:	8b e8       	ldi	r24, 0x8B	; 139
     b10:	91 e0       	ldi	r25, 0x01	; 1
     b12:	d7 01       	movw	r26, r14
     b14:	11 96       	adiw	r26, 0x01	; 1
     b16:	9c 93       	st	X, r25
     b18:	8e 93       	st	-X, r24
	myNode->previous = previous;
     b1a:	15 96       	adiw	r26, 0x05	; 5
     b1c:	7c 92       	st	X, r7
     b1e:	6e 92       	st	-X, r6
     b20:	14 97       	sbiw	r26, 0x04	; 4
	myNode->next = next;
     b22:	13 96       	adiw	r26, 0x03	; 3
     b24:	1c 92       	st	X, r1
     b26:	1e 92       	st	-X, r1
     b28:	12 97       	sbiw	r26, 0x02	; 2
	myNode->child = child;
     b2a:	17 96       	adiw	r26, 0x07	; 7
     b2c:	5c 92       	st	X, r5
     b2e:	4e 92       	st	-X, r4
     b30:	16 97       	sbiw	r26, 0x06	; 6
	myNode->parent = parent;
     b32:	19 96       	adiw	r26, 0x09	; 9
     b34:	1c 93       	st	X, r17
     b36:	0e 93       	st	-X, r16
     b38:	18 97       	sbiw	r26, 0x08	; 8
		menu_defineMenuEntries(developers,"Daniel Tavakoli          Nicolas Carbone          Byggern Autumn 2017",NULL,NULL,NULL,credits);
		
}

void menu_defineMenuEntries(node_t* myNode, char* nodeName, node_t* next, node_t* previous, node_t* child, node_t* parent){
	myNode->name = nodeName;
     b3a:	81 e9       	ldi	r24, 0x91	; 145
     b3c:	91 e0       	ldi	r25, 0x01	; 1
     b3e:	f2 01       	movw	r30, r4
     b40:	91 83       	std	Z+1, r25	; 0x01
     b42:	80 83       	st	Z, r24
	myNode->previous = previous;
     b44:	15 82       	std	Z+5, r1	; 0x05
     b46:	14 82       	std	Z+4, r1	; 0x04
	myNode->next = next;
     b48:	8b 81       	ldd	r24, Y+3	; 0x03
     b4a:	9c 81       	ldd	r25, Y+4	; 0x04
     b4c:	93 83       	std	Z+3, r25	; 0x03
     b4e:	82 83       	std	Z+2, r24	; 0x02
	myNode->child = child;
     b50:	17 82       	std	Z+7, r1	; 0x07
     b52:	16 82       	std	Z+6, r1	; 0x06
	myNode->parent = parent;
     b54:	f1 86       	std	Z+9, r15	; 0x09
     b56:	e0 86       	std	Z+8, r14	; 0x08
		menu_defineMenuEntries(developers,"Daniel Tavakoli          Nicolas Carbone          Byggern Autumn 2017",NULL,NULL,NULL,credits);
		
}

void menu_defineMenuEntries(node_t* myNode, char* nodeName, node_t* next, node_t* previous, node_t* child, node_t* parent){
	myNode->name = nodeName;
     b58:	8a e9       	ldi	r24, 0x9A	; 154
     b5a:	91 e0       	ldi	r25, 0x01	; 1
     b5c:	ab 81       	ldd	r26, Y+3	; 0x03
     b5e:	bc 81       	ldd	r27, Y+4	; 0x04
     b60:	11 96       	adiw	r26, 0x01	; 1
     b62:	9c 93       	st	X, r25
     b64:	8e 93       	st	-X, r24
	myNode->previous = previous;
     b66:	15 96       	adiw	r26, 0x05	; 5
     b68:	5c 92       	st	X, r5
     b6a:	4e 92       	st	-X, r4
     b6c:	14 97       	sbiw	r26, 0x04	; 4
	myNode->next = next;
     b6e:	13 96       	adiw	r26, 0x03	; 3
     b70:	1c 92       	st	X, r1
     b72:	1e 92       	st	-X, r1
     b74:	12 97       	sbiw	r26, 0x02	; 2
	myNode->child = child;
     b76:	17 96       	adiw	r26, 0x07	; 7
     b78:	1c 92       	st	X, r1
     b7a:	1e 92       	st	-X, r1
     b7c:	16 97       	sbiw	r26, 0x06	; 6
	myNode->parent = parent;
     b7e:	19 96       	adiw	r26, 0x09	; 9
     b80:	fc 92       	st	X, r15
     b82:	ee 92       	st	-X, r14
     b84:	18 97       	sbiw	r26, 0x08	; 8
		menu_defineMenuEntries(developers,"Daniel Tavakoli          Nicolas Carbone          Byggern Autumn 2017",NULL,NULL,NULL,credits);
		
}

void menu_defineMenuEntries(node_t* myNode, char* nodeName, node_t* next, node_t* previous, node_t* child, node_t* parent){
	myNode->name = nodeName;
     b86:	84 ea       	ldi	r24, 0xA4	; 164
     b88:	91 e0       	ldi	r25, 0x01	; 1
     b8a:	f1 01       	movw	r30, r2
     b8c:	91 83       	std	Z+1, r25	; 0x01
     b8e:	80 83       	st	Z, r24
	myNode->previous = previous;
     b90:	15 83       	std	Z+5, r17	; 0x05
     b92:	04 83       	std	Z+4, r16	; 0x04
	myNode->next = next;
     b94:	13 82       	std	Z+3, r1	; 0x03
     b96:	12 82       	std	Z+2, r1	; 0x02
	myNode->child = child;
     b98:	37 83       	std	Z+7, r19	; 0x07
     b9a:	26 83       	std	Z+6, r18	; 0x06
	myNode->parent = parent;
     b9c:	11 86       	std	Z+9, r1	; 0x09
     b9e:	10 86       	std	Z+8, r1	; 0x08
		menu_defineMenuEntries(developers,"Daniel Tavakoli          Nicolas Carbone          Byggern Autumn 2017",NULL,NULL,NULL,credits);
		
}

void menu_defineMenuEntries(node_t* myNode, char* nodeName, node_t* next, node_t* previous, node_t* child, node_t* parent){
	myNode->name = nodeName;
     ba0:	8c ea       	ldi	r24, 0xAC	; 172
     ba2:	91 e0       	ldi	r25, 0x01	; 1
     ba4:	d9 01       	movw	r26, r18
     ba6:	11 96       	adiw	r26, 0x01	; 1
     ba8:	9c 93       	st	X, r25
     baa:	8e 93       	st	-X, r24
	myNode->previous = previous;
     bac:	15 96       	adiw	r26, 0x05	; 5
     bae:	1c 92       	st	X, r1
     bb0:	1e 92       	st	-X, r1
     bb2:	14 97       	sbiw	r26, 0x04	; 4
	myNode->next = next;
     bb4:	13 96       	adiw	r26, 0x03	; 3
     bb6:	1c 92       	st	X, r1
     bb8:	1e 92       	st	-X, r1
     bba:	12 97       	sbiw	r26, 0x02	; 2
	myNode->child = child;
     bbc:	17 96       	adiw	r26, 0x07	; 7
     bbe:	1c 92       	st	X, r1
     bc0:	1e 92       	st	-X, r1
     bc2:	16 97       	sbiw	r26, 0x06	; 6
	myNode->parent = parent;
     bc4:	19 96       	adiw	r26, 0x09	; 9
     bc6:	3c 92       	st	X, r3
     bc8:	2e 92       	st	-X, r2
     bca:	18 97       	sbiw	r26, 0x08	; 8
		
	
	menu_defineMenuEntries(credits,"Credits",NULL,options, developers, NULL);
		menu_defineMenuEntries(developers,"Daniel Tavakoli          Nicolas Carbone          Byggern Autumn 2017",NULL,NULL,NULL,credits);
		
}
     bcc:	26 96       	adiw	r28, 0x06	; 6
     bce:	0f b6       	in	r0, 0x3f	; 63
     bd0:	f8 94       	cli
     bd2:	de bf       	out	0x3e, r29	; 62
     bd4:	0f be       	out	0x3f, r0	; 63
     bd6:	cd bf       	out	0x3d, r28	; 61
     bd8:	df 91       	pop	r29
     bda:	cf 91       	pop	r28
     bdc:	1f 91       	pop	r17
     bde:	0f 91       	pop	r16
     be0:	ff 90       	pop	r15
     be2:	ef 90       	pop	r14
     be4:	df 90       	pop	r13
     be6:	cf 90       	pop	r12
     be8:	bf 90       	pop	r11
     bea:	af 90       	pop	r10
     bec:	9f 90       	pop	r9
     bee:	8f 90       	pop	r8
     bf0:	7f 90       	pop	r7
     bf2:	6f 90       	pop	r6
     bf4:	5f 90       	pop	r5
     bf6:	4f 90       	pop	r4
     bf8:	3f 90       	pop	r3
     bfa:	2f 90       	pop	r2
     bfc:	08 95       	ret

00000bfe <menu_save>:
	myNode->child = child;
	myNode->parent = parent;
}


void menu_save(void){ //Argument node_t* firstNode?
     bfe:	1f 93       	push	r17
     c00:	cf 93       	push	r28
     c02:	df 93       	push	r29
	
	node_t* temp = malloc(sizeof(node_t)); //For å iterere gjennom den lenkede listen
	temp = currentHead;
     c04:	c0 91 34 02 	lds	r28, 0x0234
     c08:	d0 91 35 02 	lds	r29, 0x0235
	
	int page = 0;
	while(temp->previous!=NULL){ //Itererer oss bakover til første node i listen
     c0c:	8c 81       	ldd	r24, Y+4	; 0x04
     c0e:	9d 81       	ldd	r25, Y+5	; 0x05
     c10:	00 97       	sbiw	r24, 0x00	; 0
     c12:	11 f0       	breq	.+4      	; 0xc18 <menu_save+0x1a>
		temp = temp->previous;
     c14:	ec 01       	movw	r28, r24
     c16:	fa cf       	rjmp	.-12     	; 0xc0c <menu_save+0xe>
	}
	while(temp!= NULL){ //Mens noden eksisterer
     c18:	20 97       	sbiw	r28, 0x00	; 0
     c1a:	09 f1       	breq	.+66     	; 0xc5e <menu_save+0x60>
     c1c:	10 e0       	ldi	r17, 0x00	; 0
		
		
		if(currentSelection == temp && currentSelection != developers){
     c1e:	80 91 30 02 	lds	r24, 0x0230
     c22:	90 91 31 02 	lds	r25, 0x0231
     c26:	8c 17       	cp	r24, r28
     c28:	9d 07       	cpc	r25, r29
     c2a:	69 f4       	brne	.+26     	; 0xc46 <menu_save+0x48>
     c2c:	20 91 32 02 	lds	r18, 0x0232
     c30:	30 91 33 02 	lds	r19, 0x0233
     c34:	82 17       	cp	r24, r18
     c36:	93 07       	cpc	r25, r19
     c38:	31 f0       	breq	.+12     	; 0xc46 <menu_save+0x48>
			sram_save_string("-->",page,0); //Burde pilen hardkodes et sted slik eller legges rett etter skriften?
     c3a:	40 e0       	ldi	r20, 0x00	; 0
     c3c:	61 2f       	mov	r22, r17
     c3e:	82 ef       	ldi	r24, 0xF2	; 242
     c40:	91 e0       	ldi	r25, 0x01	; 1
     c42:	0e 94 8b 07 	call	0xf16	; 0xf16 <sram_save_string>
		}
		sram_save_string(temp->name, page,20);
     c46:	44 e1       	ldi	r20, 0x14	; 20
     c48:	61 2f       	mov	r22, r17
     c4a:	88 81       	ld	r24, Y
     c4c:	99 81       	ldd	r25, Y+1	; 0x01
     c4e:	0e 94 8b 07 	call	0xf16	; 0xf16 <sram_save_string>
		
		temp = temp->next;
     c52:	0a 80       	ldd	r0, Y+2	; 0x02
     c54:	db 81       	ldd	r29, Y+3	; 0x03
     c56:	c0 2d       	mov	r28, r0
     c58:	1f 5f       	subi	r17, 0xFF	; 255
	
	int page = 0;
	while(temp->previous!=NULL){ //Itererer oss bakover til første node i listen
		temp = temp->previous;
	}
	while(temp!= NULL){ //Mens noden eksisterer
     c5a:	20 97       	sbiw	r28, 0x00	; 0
     c5c:	01 f7       	brne	.-64     	; 0xc1e <menu_save+0x20>
		sram_save_string(temp->name, page,20);
		
		temp = temp->next;
		page++;
	}
}
     c5e:	df 91       	pop	r29
     c60:	cf 91       	pop	r28
     c62:	1f 91       	pop	r17
     c64:	08 95       	ret

00000c66 <menu_printGameScreen>:

void menu_printGameScreen(void){
	switch(GAMESTATUS){
     c66:	80 91 20 02 	lds	r24, 0x0220
     c6a:	90 91 21 02 	lds	r25, 0x0221
     c6e:	82 30       	cpi	r24, 0x02	; 2
     c70:	91 05       	cpc	r25, r1
     c72:	61 f0       	breq	.+24     	; 0xc8c <menu_printGameScreen+0x26>
     c74:	83 30       	cpi	r24, 0x03	; 3
     c76:	91 05       	cpc	r25, r1
     c78:	81 f0       	breq	.+32     	; 0xc9a <menu_printGameScreen+0x34>
     c7a:	01 97       	sbiw	r24, 0x01	; 1
     c7c:	a1 f4       	brne	.+40     	; 0xca6 <menu_printGameScreen+0x40>
		case PLAYING_EASY:
			sram_save_string("EASYYYYYY", 0,30);
     c7e:	4e e1       	ldi	r20, 0x1E	; 30
     c80:	60 e0       	ldi	r22, 0x00	; 0
     c82:	86 ef       	ldi	r24, 0xF6	; 246
     c84:	91 e0       	ldi	r25, 0x01	; 1
     c86:	0e 94 8b 07 	call	0xf16	; 0xf16 <sram_save_string>
			
			break;
     c8a:	08 95       	ret
		case PLAYING_NORMAL:
			sram_save_string("MEDIUM EKSTRA MAIS",0,30);
     c8c:	4e e1       	ldi	r20, 0x1E	; 30
     c8e:	60 e0       	ldi	r22, 0x00	; 0
     c90:	80 e0       	ldi	r24, 0x00	; 0
     c92:	92 e0       	ldi	r25, 0x02	; 2
     c94:	0e 94 8b 07 	call	0xf16	; 0xf16 <sram_save_string>
			break;
     c98:	08 95       	ret
		case PLAYING_HARD:
			sram_save_string("EKSTRA STERK",0,30);
     c9a:	4e e1       	ldi	r20, 0x1E	; 30
     c9c:	60 e0       	ldi	r22, 0x00	; 0
     c9e:	83 e1       	ldi	r24, 0x13	; 19
     ca0:	92 e0       	ldi	r25, 0x02	; 2
     ca2:	0e 94 8b 07 	call	0xf16	; 0xf16 <sram_save_string>
     ca6:	08 95       	ret

00000ca8 <multiboardInfo_update>:
 */ 
#include "../../lib/can.h"
#include "../../lib/joy.h"
#include "adc.h"

int multiboardInfo_update(can_msg* yourMessage){
     ca8:	cf 93       	push	r28
     caa:	df 93       	push	r29
     cac:	ec 01       	movw	r28, r24
	
	yourMessage->id = 1; //Her bestemmer vi at en ID som 1 vil være en melding fra joysticken
     cae:	81 e0       	ldi	r24, 0x01	; 1
     cb0:	90 e0       	ldi	r25, 0x00	; 0
     cb2:	99 83       	std	Y+1, r25	; 0x01
     cb4:	88 83       	st	Y, r24
	yourMessage->length = 7;
     cb6:	87 e0       	ldi	r24, 0x07	; 7
     cb8:	8a 8b       	std	Y+18, r24	; 0x12
	yourMessage->data[0] = adc_read(0); //sender inn x-verdien til joysticken først. Denne verdien er mellom -100 og 100
     cba:	80 e0       	ldi	r24, 0x00	; 0
     cbc:	0e 94 d1 03 	call	0x7a2	; 0x7a2 <adc_read>
     cc0:	90 e0       	ldi	r25, 0x00	; 0
     cc2:	9b 83       	std	Y+3, r25	; 0x03
     cc4:	8a 83       	std	Y+2, r24	; 0x02
	yourMessage->data[1] = adc_read(1); //y-verdien til joystick
     cc6:	81 e0       	ldi	r24, 0x01	; 1
     cc8:	0e 94 d1 03 	call	0x7a2	; 0x7a2 <adc_read>
     ccc:	90 e0       	ldi	r25, 0x00	; 0
     cce:	9d 83       	std	Y+5, r25	; 0x05
     cd0:	8c 83       	std	Y+4, r24	; 0x04
	yourMessage->data[2] = joy_readButton(2); //leser joystick-knappen (L3 på ps4)
     cd2:	82 e0       	ldi	r24, 0x02	; 2
     cd4:	90 e0       	ldi	r25, 0x00	; 0
     cd6:	0e 94 57 02 	call	0x4ae	; 0x4ae <joy_readButton>
     cda:	9f 83       	std	Y+7, r25	; 0x07
     cdc:	8e 83       	std	Y+6, r24	; 0x06
	yourMessage->data[3] = joy_readButton(0); //leser venstre knapp
     cde:	80 e0       	ldi	r24, 0x00	; 0
     ce0:	90 e0       	ldi	r25, 0x00	; 0
     ce2:	0e 94 57 02 	call	0x4ae	; 0x4ae <joy_readButton>
     ce6:	99 87       	std	Y+9, r25	; 0x09
     ce8:	88 87       	std	Y+8, r24	; 0x08
	yourMessage->data[4] = joy_readButton(1); //leser høyre knapp
     cea:	81 e0       	ldi	r24, 0x01	; 1
     cec:	90 e0       	ldi	r25, 0x00	; 0
     cee:	0e 94 57 02 	call	0x4ae	; 0x4ae <joy_readButton>
     cf2:	9b 87       	std	Y+11, r25	; 0x0b
     cf4:	8a 87       	std	Y+10, r24	; 0x0a
	yourMessage->data[5] = adc_read(2); //Venstre slider
     cf6:	82 e0       	ldi	r24, 0x02	; 2
     cf8:	0e 94 d1 03 	call	0x7a2	; 0x7a2 <adc_read>
     cfc:	90 e0       	ldi	r25, 0x00	; 0
     cfe:	9d 87       	std	Y+13, r25	; 0x0d
     d00:	8c 87       	std	Y+12, r24	; 0x0c
	yourMessage->data[6] = adc_read(3); //Høyre slider
     d02:	83 e0       	ldi	r24, 0x03	; 3
     d04:	0e 94 d1 03 	call	0x7a2	; 0x7a2 <adc_read>
     d08:	90 e0       	ldi	r25, 0x00	; 0
     d0a:	9f 87       	std	Y+15, r25	; 0x0f
     d0c:	8e 87       	std	Y+14, r24	; 0x0e
	
	return 1;
     d0e:	81 e0       	ldi	r24, 0x01	; 1
     d10:	90 e0       	ldi	r25, 0x00	; 0
     d12:	df 91       	pop	r29
     d14:	cf 91       	pop	r28
     d16:	08 95       	ret

00000d18 <oled_goto_column>:
     d18:	98 2f       	mov	r25, r24
     d1a:	9f 70       	andi	r25, 0x0F	; 15
     d1c:	e0 e0       	ldi	r30, 0x00	; 0
     d1e:	f0 e1       	ldi	r31, 0x10	; 16
     d20:	90 83       	st	Z, r25
     d22:	82 95       	swap	r24
     d24:	8f 70       	andi	r24, 0x0F	; 15
     d26:	80 5f       	subi	r24, 0xF0	; 240
     d28:	80 83       	st	Z, r24
     d2a:	08 95       	ret

00000d2c <oled_goto_pos>:
     d2c:	80 55       	subi	r24, 0x50	; 80
     d2e:	80 93 00 10 	sts	0x1000, r24
     d32:	86 2f       	mov	r24, r22
     d34:	0e 94 8c 06 	call	0xd18	; 0xd18 <oled_goto_column>
     d38:	08 95       	ret

00000d3a <oled_refresh>:
     d3a:	df 92       	push	r13
     d3c:	ef 92       	push	r14
     d3e:	ff 92       	push	r15
     d40:	0f 93       	push	r16
     d42:	1f 93       	push	r17
     d44:	cf 93       	push	r28
     d46:	df 93       	push	r29
     d48:	00 e0       	ldi	r16, 0x00	; 0
     d4a:	10 e0       	ldi	r17, 0x00	; 0
     d4c:	f1 2c       	mov	r15, r1
     d4e:	d1 2c       	mov	r13, r1
     d50:	e1 2c       	mov	r14, r1
     d52:	c0 e0       	ldi	r28, 0x00	; 0
     d54:	d2 e1       	ldi	r29, 0x12	; 18
     d56:	60 e0       	ldi	r22, 0x00	; 0
     d58:	8f 2d       	mov	r24, r15
     d5a:	0e 94 96 06 	call	0xd2c	; 0xd2c <oled_goto_pos>
     d5e:	2d 2d       	mov	r18, r13
     d60:	3e 2d       	mov	r19, r14
     d62:	a8 01       	movw	r20, r16
     d64:	58 5e       	subi	r21, 0xE8	; 232
     d66:	fa 01       	movw	r30, r20
     d68:	e2 0f       	add	r30, r18
     d6a:	f3 1f       	adc	r31, r19
     d6c:	90 81       	ld	r25, Z
     d6e:	98 83       	st	Y, r25
     d70:	2f 5f       	subi	r18, 0xFF	; 255
     d72:	3f 4f       	sbci	r19, 0xFF	; 255
     d74:	20 38       	cpi	r18, 0x80	; 128
     d76:	31 05       	cpc	r19, r1
     d78:	b1 f7       	brne	.-20     	; 0xd66 <oled_refresh+0x2c>
     d7a:	f3 94       	inc	r15
     d7c:	00 58       	subi	r16, 0x80	; 128
     d7e:	1f 4f       	sbci	r17, 0xFF	; 255
     d80:	88 e0       	ldi	r24, 0x08	; 8
     d82:	f8 12       	cpse	r15, r24
     d84:	e8 cf       	rjmp	.-48     	; 0xd56 <oled_refresh+0x1c>
     d86:	df 91       	pop	r29
     d88:	cf 91       	pop	r28
     d8a:	1f 91       	pop	r17
     d8c:	0f 91       	pop	r16
     d8e:	ff 90       	pop	r15
     d90:	ef 90       	pop	r14
     d92:	df 90       	pop	r13
     d94:	08 95       	ret

00000d96 <oled_clear_screen>:
     d96:	1f 93       	push	r17
     d98:	cf 93       	push	r28
     d9a:	df 93       	push	r29
     d9c:	10 e0       	ldi	r17, 0x00	; 0
     d9e:	d0 e0       	ldi	r29, 0x00	; 0
     da0:	81 2f       	mov	r24, r17
     da2:	0e 94 23 07 	call	0xe46	; 0xe46 <sram_goto_page>
     da6:	cd 2f       	mov	r28, r29
     da8:	8c 2f       	mov	r24, r28
     daa:	0e 94 26 07 	call	0xe4c	; 0xe4c <sram_goto_column>
     dae:	8d 2f       	mov	r24, r29
     db0:	0e 94 16 07 	call	0xe2c	; 0xe2c <sram_write_data>
     db4:	cf 5f       	subi	r28, 0xFF	; 255
     db6:	c0 38       	cpi	r28, 0x80	; 128
     db8:	b9 f7       	brne	.-18     	; 0xda8 <oled_clear_screen+0x12>
     dba:	1f 5f       	subi	r17, 0xFF	; 255
     dbc:	18 30       	cpi	r17, 0x08	; 8
     dbe:	81 f7       	brne	.-32     	; 0xda0 <oled_clear_screen+0xa>
     dc0:	df 91       	pop	r29
     dc2:	cf 91       	pop	r28
     dc4:	1f 91       	pop	r17
     dc6:	08 95       	ret

00000dc8 <oled_init>:
     dc8:	e0 e0       	ldi	r30, 0x00	; 0
     dca:	f0 e1       	ldi	r31, 0x10	; 16
     dcc:	8e ea       	ldi	r24, 0xAE	; 174
     dce:	80 83       	st	Z, r24
     dd0:	81 ea       	ldi	r24, 0xA1	; 161
     dd2:	80 83       	st	Z, r24
     dd4:	8a ed       	ldi	r24, 0xDA	; 218
     dd6:	80 83       	st	Z, r24
     dd8:	82 e1       	ldi	r24, 0x12	; 18
     dda:	80 83       	st	Z, r24
     ddc:	88 ec       	ldi	r24, 0xC8	; 200
     dde:	80 83       	st	Z, r24
     de0:	88 ea       	ldi	r24, 0xA8	; 168
     de2:	80 83       	st	Z, r24
     de4:	8f e3       	ldi	r24, 0x3F	; 63
     de6:	80 83       	st	Z, r24
     de8:	85 ed       	ldi	r24, 0xD5	; 213
     dea:	80 83       	st	Z, r24
     dec:	80 e8       	ldi	r24, 0x80	; 128
     dee:	80 83       	st	Z, r24
     df0:	81 e8       	ldi	r24, 0x81	; 129
     df2:	80 83       	st	Z, r24
     df4:	80 e5       	ldi	r24, 0x50	; 80
     df6:	80 83       	st	Z, r24
     df8:	89 ed       	ldi	r24, 0xD9	; 217
     dfa:	80 83       	st	Z, r24
     dfc:	81 e2       	ldi	r24, 0x21	; 33
     dfe:	80 83       	st	Z, r24
     e00:	80 e2       	ldi	r24, 0x20	; 32
     e02:	80 83       	st	Z, r24
     e04:	82 e0       	ldi	r24, 0x02	; 2
     e06:	80 83       	st	Z, r24
     e08:	8b ed       	ldi	r24, 0xDB	; 219
     e0a:	80 83       	st	Z, r24
     e0c:	80 e3       	ldi	r24, 0x30	; 48
     e0e:	80 83       	st	Z, r24
     e10:	8d ea       	ldi	r24, 0xAD	; 173
     e12:	80 83       	st	Z, r24
     e14:	10 82       	st	Z, r1
     e16:	84 ea       	ldi	r24, 0xA4	; 164
     e18:	80 83       	st	Z, r24
     e1a:	86 ea       	ldi	r24, 0xA6	; 166
     e1c:	80 83       	st	Z, r24
     e1e:	8f ea       	ldi	r24, 0xAF	; 175
     e20:	80 83       	st	Z, r24
     e22:	10 92 36 02 	sts	0x0236, r1
     e26:	10 92 37 02 	sts	0x0237, r1
     e2a:	08 95       	ret

00000e2c <sram_write_data>:
     e2c:	90 91 36 02 	lds	r25, 0x0236
     e30:	e0 91 37 02 	lds	r30, 0x0237
     e34:	f0 e0       	ldi	r31, 0x00	; 0
     e36:	20 e8       	ldi	r18, 0x80	; 128
     e38:	92 9f       	mul	r25, r18
     e3a:	e0 0d       	add	r30, r0
     e3c:	f1 1d       	adc	r31, r1
     e3e:	11 24       	eor	r1, r1
     e40:	f8 5e       	subi	r31, 0xE8	; 232
     e42:	80 83       	st	Z, r24
     e44:	08 95       	ret

00000e46 <sram_goto_page>:
     e46:	80 93 36 02 	sts	0x0236, r24
     e4a:	08 95       	ret

00000e4c <sram_goto_column>:
     e4c:	80 93 37 02 	sts	0x0237, r24
     e50:	08 95       	ret

00000e52 <sram_save_char>:
     e52:	cf 92       	push	r12
     e54:	df 92       	push	r13
     e56:	ef 92       	push	r14
     e58:	ff 92       	push	r15
     e5a:	0f 93       	push	r16
     e5c:	1f 93       	push	r17
     e5e:	cf 93       	push	r28
     e60:	df 93       	push	r29
     e62:	08 2f       	mov	r16, r24
     e64:	10 e0       	ldi	r17, 0x00	; 0
     e66:	cb e4       	ldi	r28, 0x4B	; 75
     e68:	d2 e0       	ldi	r29, 0x02	; 2
     e6a:	c8 01       	movw	r24, r16
     e6c:	80 97       	sbiw	r24, 0x20	; 32
     e6e:	7c 01       	movw	r14, r24
     e70:	ee 0c       	add	r14, r14
     e72:	ff 1c       	adc	r15, r15
     e74:	ee 0c       	add	r14, r14
     e76:	ff 1c       	adc	r15, r15
     e78:	8e 0d       	add	r24, r14
     e7a:	9f 1d       	adc	r25, r15
     e7c:	9c 01       	movw	r18, r24
     e7e:	20 59       	subi	r18, 0x90	; 144
     e80:	3f 4f       	sbci	r19, 0xFF	; 255
     e82:	79 01       	movw	r14, r18
     e84:	0f 2e       	mov	r0, r31
     e86:	f0 e5       	ldi	r31, 0x50	; 80
     e88:	cf 2e       	mov	r12, r31
     e8a:	f2 e0       	ldi	r31, 0x02	; 2
     e8c:	df 2e       	mov	r13, r31
     e8e:	f0 2d       	mov	r31, r0
     e90:	06 3c       	cpi	r16, 0xC6	; 198
     e92:	11 05       	cpc	r17, r1
     e94:	51 f4       	brne	.+20     	; 0xeaa <sram_save_char+0x58>
     e96:	fe 01       	movw	r30, r28
     e98:	84 91       	lpm	r24, Z
     e9a:	0e 94 16 07 	call	0xe2c	; 0xe2c <sram_write_data>
     e9e:	80 91 37 02 	lds	r24, 0x0237
     ea2:	8f 5f       	subi	r24, 0xFF	; 255
     ea4:	80 93 37 02 	sts	0x0237, r24
     ea8:	25 c0       	rjmp	.+74     	; 0xef4 <sram_save_char+0xa2>
     eaa:	06 3e       	cpi	r16, 0xE6	; 230
     eac:	11 05       	cpc	r17, r1
     eae:	59 f4       	brne	.+22     	; 0xec6 <sram_save_char+0x74>
     eb0:	fe 01       	movw	r30, r28
     eb2:	35 96       	adiw	r30, 0x05	; 5
     eb4:	84 91       	lpm	r24, Z
     eb6:	0e 94 16 07 	call	0xe2c	; 0xe2c <sram_write_data>
     eba:	80 91 37 02 	lds	r24, 0x0237
     ebe:	8f 5f       	subi	r24, 0xFF	; 255
     ec0:	80 93 37 02 	sts	0x0237, r24
     ec4:	17 c0       	rjmp	.+46     	; 0xef4 <sram_save_char+0xa2>
     ec6:	08 3a       	cpi	r16, 0xA8	; 168
     ec8:	11 05       	cpc	r17, r1
     eca:	59 f4       	brne	.+22     	; 0xee2 <sram_save_char+0x90>
     ecc:	fe 01       	movw	r30, r28
     ece:	3a 96       	adiw	r30, 0x0a	; 10
     ed0:	84 91       	lpm	r24, Z
     ed2:	0e 94 16 07 	call	0xe2c	; 0xe2c <sram_write_data>
     ed6:	80 91 37 02 	lds	r24, 0x0237
     eda:	8f 5f       	subi	r24, 0xFF	; 255
     edc:	80 93 37 02 	sts	0x0237, r24
     ee0:	09 c0       	rjmp	.+18     	; 0xef4 <sram_save_char+0xa2>
     ee2:	f7 01       	movw	r30, r14
     ee4:	84 91       	lpm	r24, Z
     ee6:	0e 94 16 07 	call	0xe2c	; 0xe2c <sram_write_data>
     eea:	80 91 37 02 	lds	r24, 0x0237
     eee:	8f 5f       	subi	r24, 0xFF	; 255
     ef0:	80 93 37 02 	sts	0x0237, r24
     ef4:	21 96       	adiw	r28, 0x01	; 1
     ef6:	ff ef       	ldi	r31, 0xFF	; 255
     ef8:	ef 1a       	sub	r14, r31
     efa:	ff 0a       	sbc	r15, r31
     efc:	cc 15       	cp	r28, r12
     efe:	dd 05       	cpc	r29, r13
     f00:	09 f0       	breq	.+2      	; 0xf04 <sram_save_char+0xb2>
     f02:	c6 cf       	rjmp	.-116    	; 0xe90 <sram_save_char+0x3e>
     f04:	df 91       	pop	r29
     f06:	cf 91       	pop	r28
     f08:	1f 91       	pop	r17
     f0a:	0f 91       	pop	r16
     f0c:	ff 90       	pop	r15
     f0e:	ef 90       	pop	r14
     f10:	df 90       	pop	r13
     f12:	cf 90       	pop	r12
     f14:	08 95       	ret

00000f16 <sram_save_string>:
     f16:	8f 92       	push	r8
     f18:	9f 92       	push	r9
     f1a:	af 92       	push	r10
     f1c:	bf 92       	push	r11
     f1e:	cf 92       	push	r12
     f20:	df 92       	push	r13
     f22:	ef 92       	push	r14
     f24:	ff 92       	push	r15
     f26:	0f 93       	push	r16
     f28:	1f 93       	push	r17
     f2a:	cf 93       	push	r28
     f2c:	df 93       	push	r29
     f2e:	7c 01       	movw	r14, r24
     f30:	60 93 36 02 	sts	0x0236, r22
     f34:	40 93 37 02 	sts	0x0237, r20
     f38:	00 91 37 02 	lds	r16, 0x0237
     f3c:	10 e0       	ldi	r17, 0x00	; 0
     f3e:	6c 01       	movw	r12, r24
     f40:	c0 e0       	ldi	r28, 0x00	; 0
     f42:	d0 e0       	ldi	r29, 0x00	; 0
     f44:	a1 2c       	mov	r10, r1
     f46:	b1 2c       	mov	r11, r1
     f48:	81 2c       	mov	r8, r1
     f4a:	91 2c       	mov	r9, r1
     f4c:	20 c0       	rjmp	.+64     	; 0xf8e <sram_save_string+0x78>
     f4e:	ce 01       	movw	r24, r28
     f50:	88 0f       	add	r24, r24
     f52:	99 1f       	adc	r25, r25
     f54:	88 0f       	add	r24, r24
     f56:	99 1f       	adc	r25, r25
     f58:	8c 0f       	add	r24, r28
     f5a:	9d 1f       	adc	r25, r29
     f5c:	80 0f       	add	r24, r16
     f5e:	91 1f       	adc	r25, r17
     f60:	8c 37       	cpi	r24, 0x7C	; 124
     f62:	91 05       	cpc	r25, r1
     f64:	5c f0       	brlt	.+22     	; 0xf7c <sram_save_string+0x66>
     f66:	80 91 36 02 	lds	r24, 0x0236
     f6a:	8f 5f       	subi	r24, 0xFF	; 255
     f6c:	80 93 36 02 	sts	0x0236, r24
     f70:	10 92 37 02 	sts	0x0237, r1
     f74:	c8 2d       	mov	r28, r8
     f76:	d9 2d       	mov	r29, r9
     f78:	08 2d       	mov	r16, r8
     f7a:	19 2d       	mov	r17, r9
     f7c:	21 96       	adiw	r28, 0x01	; 1
     f7e:	f6 01       	movw	r30, r12
     f80:	81 91       	ld	r24, Z+
     f82:	6f 01       	movw	r12, r30
     f84:	0e 94 29 07 	call	0xe52	; 0xe52 <sram_save_char>
     f88:	ff ef       	ldi	r31, 0xFF	; 255
     f8a:	af 1a       	sub	r10, r31
     f8c:	bf 0a       	sbc	r11, r31
     f8e:	f7 01       	movw	r30, r14
     f90:	01 90       	ld	r0, Z+
     f92:	00 20       	and	r0, r0
     f94:	e9 f7       	brne	.-6      	; 0xf90 <sram_save_string+0x7a>
     f96:	31 97       	sbiw	r30, 0x01	; 1
     f98:	ee 19       	sub	r30, r14
     f9a:	ff 09       	sbc	r31, r15
     f9c:	ae 16       	cp	r10, r30
     f9e:	bf 06       	cpc	r11, r31
     fa0:	b0 f2       	brcs	.-84     	; 0xf4e <sram_save_string+0x38>
     fa2:	df 91       	pop	r29
     fa4:	cf 91       	pop	r28
     fa6:	1f 91       	pop	r17
     fa8:	0f 91       	pop	r16
     faa:	ff 90       	pop	r15
     fac:	ef 90       	pop	r14
     fae:	df 90       	pop	r13
     fb0:	cf 90       	pop	r12
     fb2:	bf 90       	pop	r11
     fb4:	af 90       	pop	r10
     fb6:	9f 90       	pop	r9
     fb8:	8f 90       	pop	r8
     fba:	08 95       	ret

00000fbc <malloc>:
     fbc:	cf 93       	push	r28
     fbe:	df 93       	push	r29
     fc0:	82 30       	cpi	r24, 0x02	; 2
     fc2:	91 05       	cpc	r25, r1
     fc4:	10 f4       	brcc	.+4      	; 0xfca <malloc+0xe>
     fc6:	82 e0       	ldi	r24, 0x02	; 2
     fc8:	90 e0       	ldi	r25, 0x00	; 0
     fca:	e0 91 3a 02 	lds	r30, 0x023A
     fce:	f0 91 3b 02 	lds	r31, 0x023B
     fd2:	20 e0       	ldi	r18, 0x00	; 0
     fd4:	30 e0       	ldi	r19, 0x00	; 0
     fd6:	a0 e0       	ldi	r26, 0x00	; 0
     fd8:	b0 e0       	ldi	r27, 0x00	; 0
     fda:	30 97       	sbiw	r30, 0x00	; 0
     fdc:	39 f1       	breq	.+78     	; 0x102c <malloc+0x70>
     fde:	40 81       	ld	r20, Z
     fe0:	51 81       	ldd	r21, Z+1	; 0x01
     fe2:	48 17       	cp	r20, r24
     fe4:	59 07       	cpc	r21, r25
     fe6:	b8 f0       	brcs	.+46     	; 0x1016 <malloc+0x5a>
     fe8:	48 17       	cp	r20, r24
     fea:	59 07       	cpc	r21, r25
     fec:	71 f4       	brne	.+28     	; 0x100a <malloc+0x4e>
     fee:	82 81       	ldd	r24, Z+2	; 0x02
     ff0:	93 81       	ldd	r25, Z+3	; 0x03
     ff2:	10 97       	sbiw	r26, 0x00	; 0
     ff4:	29 f0       	breq	.+10     	; 0x1000 <malloc+0x44>
     ff6:	13 96       	adiw	r26, 0x03	; 3
     ff8:	9c 93       	st	X, r25
     ffa:	8e 93       	st	-X, r24
     ffc:	12 97       	sbiw	r26, 0x02	; 2
     ffe:	2c c0       	rjmp	.+88     	; 0x1058 <malloc+0x9c>
    1000:	90 93 3b 02 	sts	0x023B, r25
    1004:	80 93 3a 02 	sts	0x023A, r24
    1008:	27 c0       	rjmp	.+78     	; 0x1058 <malloc+0x9c>
    100a:	21 15       	cp	r18, r1
    100c:	31 05       	cpc	r19, r1
    100e:	31 f0       	breq	.+12     	; 0x101c <malloc+0x60>
    1010:	42 17       	cp	r20, r18
    1012:	53 07       	cpc	r21, r19
    1014:	18 f0       	brcs	.+6      	; 0x101c <malloc+0x60>
    1016:	a9 01       	movw	r20, r18
    1018:	db 01       	movw	r26, r22
    101a:	01 c0       	rjmp	.+2      	; 0x101e <malloc+0x62>
    101c:	ef 01       	movw	r28, r30
    101e:	9a 01       	movw	r18, r20
    1020:	bd 01       	movw	r22, r26
    1022:	df 01       	movw	r26, r30
    1024:	02 80       	ldd	r0, Z+2	; 0x02
    1026:	f3 81       	ldd	r31, Z+3	; 0x03
    1028:	e0 2d       	mov	r30, r0
    102a:	d7 cf       	rjmp	.-82     	; 0xfda <malloc+0x1e>
    102c:	21 15       	cp	r18, r1
    102e:	31 05       	cpc	r19, r1
    1030:	f9 f0       	breq	.+62     	; 0x1070 <malloc+0xb4>
    1032:	28 1b       	sub	r18, r24
    1034:	39 0b       	sbc	r19, r25
    1036:	24 30       	cpi	r18, 0x04	; 4
    1038:	31 05       	cpc	r19, r1
    103a:	80 f4       	brcc	.+32     	; 0x105c <malloc+0xa0>
    103c:	8a 81       	ldd	r24, Y+2	; 0x02
    103e:	9b 81       	ldd	r25, Y+3	; 0x03
    1040:	61 15       	cp	r22, r1
    1042:	71 05       	cpc	r23, r1
    1044:	21 f0       	breq	.+8      	; 0x104e <malloc+0x92>
    1046:	fb 01       	movw	r30, r22
    1048:	93 83       	std	Z+3, r25	; 0x03
    104a:	82 83       	std	Z+2, r24	; 0x02
    104c:	04 c0       	rjmp	.+8      	; 0x1056 <malloc+0x9a>
    104e:	90 93 3b 02 	sts	0x023B, r25
    1052:	80 93 3a 02 	sts	0x023A, r24
    1056:	fe 01       	movw	r30, r28
    1058:	32 96       	adiw	r30, 0x02	; 2
    105a:	44 c0       	rjmp	.+136    	; 0x10e4 <malloc+0x128>
    105c:	fe 01       	movw	r30, r28
    105e:	e2 0f       	add	r30, r18
    1060:	f3 1f       	adc	r31, r19
    1062:	81 93       	st	Z+, r24
    1064:	91 93       	st	Z+, r25
    1066:	22 50       	subi	r18, 0x02	; 2
    1068:	31 09       	sbc	r19, r1
    106a:	39 83       	std	Y+1, r19	; 0x01
    106c:	28 83       	st	Y, r18
    106e:	3a c0       	rjmp	.+116    	; 0x10e4 <malloc+0x128>
    1070:	20 91 38 02 	lds	r18, 0x0238
    1074:	30 91 39 02 	lds	r19, 0x0239
    1078:	23 2b       	or	r18, r19
    107a:	41 f4       	brne	.+16     	; 0x108c <malloc+0xd0>
    107c:	20 91 02 01 	lds	r18, 0x0102
    1080:	30 91 03 01 	lds	r19, 0x0103
    1084:	30 93 39 02 	sts	0x0239, r19
    1088:	20 93 38 02 	sts	0x0238, r18
    108c:	20 91 00 01 	lds	r18, 0x0100
    1090:	30 91 01 01 	lds	r19, 0x0101
    1094:	21 15       	cp	r18, r1
    1096:	31 05       	cpc	r19, r1
    1098:	41 f4       	brne	.+16     	; 0x10aa <malloc+0xee>
    109a:	2d b7       	in	r18, 0x3d	; 61
    109c:	3e b7       	in	r19, 0x3e	; 62
    109e:	40 91 04 01 	lds	r20, 0x0104
    10a2:	50 91 05 01 	lds	r21, 0x0105
    10a6:	24 1b       	sub	r18, r20
    10a8:	35 0b       	sbc	r19, r21
    10aa:	e0 91 38 02 	lds	r30, 0x0238
    10ae:	f0 91 39 02 	lds	r31, 0x0239
    10b2:	e2 17       	cp	r30, r18
    10b4:	f3 07       	cpc	r31, r19
    10b6:	a0 f4       	brcc	.+40     	; 0x10e0 <malloc+0x124>
    10b8:	2e 1b       	sub	r18, r30
    10ba:	3f 0b       	sbc	r19, r31
    10bc:	28 17       	cp	r18, r24
    10be:	39 07       	cpc	r19, r25
    10c0:	78 f0       	brcs	.+30     	; 0x10e0 <malloc+0x124>
    10c2:	ac 01       	movw	r20, r24
    10c4:	4e 5f       	subi	r20, 0xFE	; 254
    10c6:	5f 4f       	sbci	r21, 0xFF	; 255
    10c8:	24 17       	cp	r18, r20
    10ca:	35 07       	cpc	r19, r21
    10cc:	48 f0       	brcs	.+18     	; 0x10e0 <malloc+0x124>
    10ce:	4e 0f       	add	r20, r30
    10d0:	5f 1f       	adc	r21, r31
    10d2:	50 93 39 02 	sts	0x0239, r21
    10d6:	40 93 38 02 	sts	0x0238, r20
    10da:	81 93       	st	Z+, r24
    10dc:	91 93       	st	Z+, r25
    10de:	02 c0       	rjmp	.+4      	; 0x10e4 <malloc+0x128>
    10e0:	e0 e0       	ldi	r30, 0x00	; 0
    10e2:	f0 e0       	ldi	r31, 0x00	; 0
    10e4:	cf 01       	movw	r24, r30
    10e6:	df 91       	pop	r29
    10e8:	cf 91       	pop	r28
    10ea:	08 95       	ret

000010ec <free>:
    10ec:	cf 93       	push	r28
    10ee:	df 93       	push	r29
    10f0:	00 97       	sbiw	r24, 0x00	; 0
    10f2:	09 f4       	brne	.+2      	; 0x10f6 <free+0xa>
    10f4:	87 c0       	rjmp	.+270    	; 0x1204 <free+0x118>
    10f6:	fc 01       	movw	r30, r24
    10f8:	32 97       	sbiw	r30, 0x02	; 2
    10fa:	13 82       	std	Z+3, r1	; 0x03
    10fc:	12 82       	std	Z+2, r1	; 0x02
    10fe:	c0 91 3a 02 	lds	r28, 0x023A
    1102:	d0 91 3b 02 	lds	r29, 0x023B
    1106:	20 97       	sbiw	r28, 0x00	; 0
    1108:	81 f4       	brne	.+32     	; 0x112a <free+0x3e>
    110a:	20 81       	ld	r18, Z
    110c:	31 81       	ldd	r19, Z+1	; 0x01
    110e:	28 0f       	add	r18, r24
    1110:	39 1f       	adc	r19, r25
    1112:	80 91 38 02 	lds	r24, 0x0238
    1116:	90 91 39 02 	lds	r25, 0x0239
    111a:	82 17       	cp	r24, r18
    111c:	93 07       	cpc	r25, r19
    111e:	79 f5       	brne	.+94     	; 0x117e <free+0x92>
    1120:	f0 93 39 02 	sts	0x0239, r31
    1124:	e0 93 38 02 	sts	0x0238, r30
    1128:	6d c0       	rjmp	.+218    	; 0x1204 <free+0x118>
    112a:	de 01       	movw	r26, r28
    112c:	20 e0       	ldi	r18, 0x00	; 0
    112e:	30 e0       	ldi	r19, 0x00	; 0
    1130:	ae 17       	cp	r26, r30
    1132:	bf 07       	cpc	r27, r31
    1134:	50 f4       	brcc	.+20     	; 0x114a <free+0x5e>
    1136:	12 96       	adiw	r26, 0x02	; 2
    1138:	4d 91       	ld	r20, X+
    113a:	5c 91       	ld	r21, X
    113c:	13 97       	sbiw	r26, 0x03	; 3
    113e:	9d 01       	movw	r18, r26
    1140:	41 15       	cp	r20, r1
    1142:	51 05       	cpc	r21, r1
    1144:	09 f1       	breq	.+66     	; 0x1188 <free+0x9c>
    1146:	da 01       	movw	r26, r20
    1148:	f3 cf       	rjmp	.-26     	; 0x1130 <free+0x44>
    114a:	b3 83       	std	Z+3, r27	; 0x03
    114c:	a2 83       	std	Z+2, r26	; 0x02
    114e:	40 81       	ld	r20, Z
    1150:	51 81       	ldd	r21, Z+1	; 0x01
    1152:	84 0f       	add	r24, r20
    1154:	95 1f       	adc	r25, r21
    1156:	8a 17       	cp	r24, r26
    1158:	9b 07       	cpc	r25, r27
    115a:	71 f4       	brne	.+28     	; 0x1178 <free+0x8c>
    115c:	8d 91       	ld	r24, X+
    115e:	9c 91       	ld	r25, X
    1160:	11 97       	sbiw	r26, 0x01	; 1
    1162:	84 0f       	add	r24, r20
    1164:	95 1f       	adc	r25, r21
    1166:	02 96       	adiw	r24, 0x02	; 2
    1168:	91 83       	std	Z+1, r25	; 0x01
    116a:	80 83       	st	Z, r24
    116c:	12 96       	adiw	r26, 0x02	; 2
    116e:	8d 91       	ld	r24, X+
    1170:	9c 91       	ld	r25, X
    1172:	13 97       	sbiw	r26, 0x03	; 3
    1174:	93 83       	std	Z+3, r25	; 0x03
    1176:	82 83       	std	Z+2, r24	; 0x02
    1178:	21 15       	cp	r18, r1
    117a:	31 05       	cpc	r19, r1
    117c:	29 f4       	brne	.+10     	; 0x1188 <free+0x9c>
    117e:	f0 93 3b 02 	sts	0x023B, r31
    1182:	e0 93 3a 02 	sts	0x023A, r30
    1186:	3e c0       	rjmp	.+124    	; 0x1204 <free+0x118>
    1188:	d9 01       	movw	r26, r18
    118a:	13 96       	adiw	r26, 0x03	; 3
    118c:	fc 93       	st	X, r31
    118e:	ee 93       	st	-X, r30
    1190:	12 97       	sbiw	r26, 0x02	; 2
    1192:	4d 91       	ld	r20, X+
    1194:	5d 91       	ld	r21, X+
    1196:	a4 0f       	add	r26, r20
    1198:	b5 1f       	adc	r27, r21
    119a:	ea 17       	cp	r30, r26
    119c:	fb 07       	cpc	r31, r27
    119e:	79 f4       	brne	.+30     	; 0x11be <free+0xd2>
    11a0:	80 81       	ld	r24, Z
    11a2:	91 81       	ldd	r25, Z+1	; 0x01
    11a4:	84 0f       	add	r24, r20
    11a6:	95 1f       	adc	r25, r21
    11a8:	02 96       	adiw	r24, 0x02	; 2
    11aa:	d9 01       	movw	r26, r18
    11ac:	11 96       	adiw	r26, 0x01	; 1
    11ae:	9c 93       	st	X, r25
    11b0:	8e 93       	st	-X, r24
    11b2:	82 81       	ldd	r24, Z+2	; 0x02
    11b4:	93 81       	ldd	r25, Z+3	; 0x03
    11b6:	13 96       	adiw	r26, 0x03	; 3
    11b8:	9c 93       	st	X, r25
    11ba:	8e 93       	st	-X, r24
    11bc:	12 97       	sbiw	r26, 0x02	; 2
    11be:	e0 e0       	ldi	r30, 0x00	; 0
    11c0:	f0 e0       	ldi	r31, 0x00	; 0
    11c2:	8a 81       	ldd	r24, Y+2	; 0x02
    11c4:	9b 81       	ldd	r25, Y+3	; 0x03
    11c6:	00 97       	sbiw	r24, 0x00	; 0
    11c8:	19 f0       	breq	.+6      	; 0x11d0 <free+0xe4>
    11ca:	fe 01       	movw	r30, r28
    11cc:	ec 01       	movw	r28, r24
    11ce:	f9 cf       	rjmp	.-14     	; 0x11c2 <free+0xd6>
    11d0:	ce 01       	movw	r24, r28
    11d2:	02 96       	adiw	r24, 0x02	; 2
    11d4:	28 81       	ld	r18, Y
    11d6:	39 81       	ldd	r19, Y+1	; 0x01
    11d8:	82 0f       	add	r24, r18
    11da:	93 1f       	adc	r25, r19
    11dc:	20 91 38 02 	lds	r18, 0x0238
    11e0:	30 91 39 02 	lds	r19, 0x0239
    11e4:	28 17       	cp	r18, r24
    11e6:	39 07       	cpc	r19, r25
    11e8:	69 f4       	brne	.+26     	; 0x1204 <free+0x118>
    11ea:	30 97       	sbiw	r30, 0x00	; 0
    11ec:	29 f4       	brne	.+10     	; 0x11f8 <free+0x10c>
    11ee:	10 92 3b 02 	sts	0x023B, r1
    11f2:	10 92 3a 02 	sts	0x023A, r1
    11f6:	02 c0       	rjmp	.+4      	; 0x11fc <free+0x110>
    11f8:	13 82       	std	Z+3, r1	; 0x03
    11fa:	12 82       	std	Z+2, r1	; 0x02
    11fc:	d0 93 39 02 	sts	0x0239, r29
    1200:	c0 93 38 02 	sts	0x0238, r28
    1204:	df 91       	pop	r29
    1206:	cf 91       	pop	r28
    1208:	08 95       	ret

0000120a <fdevopen>:
    120a:	0f 93       	push	r16
    120c:	1f 93       	push	r17
    120e:	cf 93       	push	r28
    1210:	df 93       	push	r29
    1212:	ec 01       	movw	r28, r24
    1214:	8b 01       	movw	r16, r22
    1216:	00 97       	sbiw	r24, 0x00	; 0
    1218:	31 f4       	brne	.+12     	; 0x1226 <fdevopen+0x1c>
    121a:	61 15       	cp	r22, r1
    121c:	71 05       	cpc	r23, r1
    121e:	19 f4       	brne	.+6      	; 0x1226 <fdevopen+0x1c>
    1220:	80 e0       	ldi	r24, 0x00	; 0
    1222:	90 e0       	ldi	r25, 0x00	; 0
    1224:	38 c0       	rjmp	.+112    	; 0x1296 <fdevopen+0x8c>
    1226:	6e e0       	ldi	r22, 0x0E	; 14
    1228:	70 e0       	ldi	r23, 0x00	; 0
    122a:	81 e0       	ldi	r24, 0x01	; 1
    122c:	90 e0       	ldi	r25, 0x00	; 0
    122e:	0e 94 63 0b 	call	0x16c6	; 0x16c6 <calloc>
    1232:	fc 01       	movw	r30, r24
    1234:	00 97       	sbiw	r24, 0x00	; 0
    1236:	a1 f3       	breq	.-24     	; 0x1220 <fdevopen+0x16>
    1238:	80 e8       	ldi	r24, 0x80	; 128
    123a:	83 83       	std	Z+3, r24	; 0x03
    123c:	01 15       	cp	r16, r1
    123e:	11 05       	cpc	r17, r1
    1240:	71 f0       	breq	.+28     	; 0x125e <fdevopen+0x54>
    1242:	13 87       	std	Z+11, r17	; 0x0b
    1244:	02 87       	std	Z+10, r16	; 0x0a
    1246:	81 e8       	ldi	r24, 0x81	; 129
    1248:	83 83       	std	Z+3, r24	; 0x03
    124a:	80 91 3c 02 	lds	r24, 0x023C
    124e:	90 91 3d 02 	lds	r25, 0x023D
    1252:	89 2b       	or	r24, r25
    1254:	21 f4       	brne	.+8      	; 0x125e <fdevopen+0x54>
    1256:	f0 93 3d 02 	sts	0x023D, r31
    125a:	e0 93 3c 02 	sts	0x023C, r30
    125e:	20 97       	sbiw	r28, 0x00	; 0
    1260:	c9 f0       	breq	.+50     	; 0x1294 <fdevopen+0x8a>
    1262:	d1 87       	std	Z+9, r29	; 0x09
    1264:	c0 87       	std	Z+8, r28	; 0x08
    1266:	83 81       	ldd	r24, Z+3	; 0x03
    1268:	82 60       	ori	r24, 0x02	; 2
    126a:	83 83       	std	Z+3, r24	; 0x03
    126c:	80 91 3e 02 	lds	r24, 0x023E
    1270:	90 91 3f 02 	lds	r25, 0x023F
    1274:	89 2b       	or	r24, r25
    1276:	71 f4       	brne	.+28     	; 0x1294 <fdevopen+0x8a>
    1278:	f0 93 3f 02 	sts	0x023F, r31
    127c:	e0 93 3e 02 	sts	0x023E, r30
    1280:	80 91 40 02 	lds	r24, 0x0240
    1284:	90 91 41 02 	lds	r25, 0x0241
    1288:	89 2b       	or	r24, r25
    128a:	21 f4       	brne	.+8      	; 0x1294 <fdevopen+0x8a>
    128c:	f0 93 41 02 	sts	0x0241, r31
    1290:	e0 93 40 02 	sts	0x0240, r30
    1294:	cf 01       	movw	r24, r30
    1296:	df 91       	pop	r29
    1298:	cf 91       	pop	r28
    129a:	1f 91       	pop	r17
    129c:	0f 91       	pop	r16
    129e:	08 95       	ret

000012a0 <printf>:
    12a0:	a0 e0       	ldi	r26, 0x00	; 0
    12a2:	b0 e0       	ldi	r27, 0x00	; 0
    12a4:	e6 e5       	ldi	r30, 0x56	; 86
    12a6:	f9 e0       	ldi	r31, 0x09	; 9
    12a8:	0c 94 3c 0c 	jmp	0x1878	; 0x1878 <__prologue_saves__+0x20>
    12ac:	fe 01       	movw	r30, r28
    12ae:	35 96       	adiw	r30, 0x05	; 5
    12b0:	61 91       	ld	r22, Z+
    12b2:	71 91       	ld	r23, Z+
    12b4:	af 01       	movw	r20, r30
    12b6:	80 91 3e 02 	lds	r24, 0x023E
    12ba:	90 91 3f 02 	lds	r25, 0x023F
    12be:	0e 94 91 09 	call	0x1322	; 0x1322 <vfprintf>
    12c2:	e2 e0       	ldi	r30, 0x02	; 2
    12c4:	0c 94 58 0c 	jmp	0x18b0	; 0x18b0 <__epilogue_restores__+0x20>

000012c8 <puts>:
    12c8:	0f 93       	push	r16
    12ca:	1f 93       	push	r17
    12cc:	cf 93       	push	r28
    12ce:	df 93       	push	r29
    12d0:	e0 91 3e 02 	lds	r30, 0x023E
    12d4:	f0 91 3f 02 	lds	r31, 0x023F
    12d8:	23 81       	ldd	r18, Z+3	; 0x03
    12da:	21 ff       	sbrs	r18, 1
    12dc:	1b c0       	rjmp	.+54     	; 0x1314 <puts+0x4c>
    12de:	ec 01       	movw	r28, r24
    12e0:	00 e0       	ldi	r16, 0x00	; 0
    12e2:	10 e0       	ldi	r17, 0x00	; 0
    12e4:	89 91       	ld	r24, Y+
    12e6:	60 91 3e 02 	lds	r22, 0x023E
    12ea:	70 91 3f 02 	lds	r23, 0x023F
    12ee:	db 01       	movw	r26, r22
    12f0:	18 96       	adiw	r26, 0x08	; 8
    12f2:	ed 91       	ld	r30, X+
    12f4:	fc 91       	ld	r31, X
    12f6:	19 97       	sbiw	r26, 0x09	; 9
    12f8:	88 23       	and	r24, r24
    12fa:	31 f0       	breq	.+12     	; 0x1308 <puts+0x40>
    12fc:	09 95       	icall
    12fe:	89 2b       	or	r24, r25
    1300:	89 f3       	breq	.-30     	; 0x12e4 <puts+0x1c>
    1302:	0f ef       	ldi	r16, 0xFF	; 255
    1304:	1f ef       	ldi	r17, 0xFF	; 255
    1306:	ee cf       	rjmp	.-36     	; 0x12e4 <puts+0x1c>
    1308:	8a e0       	ldi	r24, 0x0A	; 10
    130a:	09 95       	icall
    130c:	89 2b       	or	r24, r25
    130e:	11 f4       	brne	.+4      	; 0x1314 <puts+0x4c>
    1310:	c8 01       	movw	r24, r16
    1312:	02 c0       	rjmp	.+4      	; 0x1318 <puts+0x50>
    1314:	8f ef       	ldi	r24, 0xFF	; 255
    1316:	9f ef       	ldi	r25, 0xFF	; 255
    1318:	df 91       	pop	r29
    131a:	cf 91       	pop	r28
    131c:	1f 91       	pop	r17
    131e:	0f 91       	pop	r16
    1320:	08 95       	ret

00001322 <vfprintf>:
    1322:	ac e0       	ldi	r26, 0x0C	; 12
    1324:	b0 e0       	ldi	r27, 0x00	; 0
    1326:	e7 e9       	ldi	r30, 0x97	; 151
    1328:	f9 e0       	ldi	r31, 0x09	; 9
    132a:	0c 94 2c 0c 	jmp	0x1858	; 0x1858 <__prologue_saves__>
    132e:	7c 01       	movw	r14, r24
    1330:	6b 01       	movw	r12, r22
    1332:	8a 01       	movw	r16, r20
    1334:	fc 01       	movw	r30, r24
    1336:	17 82       	std	Z+7, r1	; 0x07
    1338:	16 82       	std	Z+6, r1	; 0x06
    133a:	83 81       	ldd	r24, Z+3	; 0x03
    133c:	81 ff       	sbrs	r24, 1
    133e:	bd c1       	rjmp	.+890    	; 0x16ba <vfprintf+0x398>
    1340:	ce 01       	movw	r24, r28
    1342:	01 96       	adiw	r24, 0x01	; 1
    1344:	4c 01       	movw	r8, r24
    1346:	f7 01       	movw	r30, r14
    1348:	93 81       	ldd	r25, Z+3	; 0x03
    134a:	f6 01       	movw	r30, r12
    134c:	93 fd       	sbrc	r25, 3
    134e:	85 91       	lpm	r24, Z+
    1350:	93 ff       	sbrs	r25, 3
    1352:	81 91       	ld	r24, Z+
    1354:	6f 01       	movw	r12, r30
    1356:	88 23       	and	r24, r24
    1358:	09 f4       	brne	.+2      	; 0x135c <vfprintf+0x3a>
    135a:	ab c1       	rjmp	.+854    	; 0x16b2 <vfprintf+0x390>
    135c:	85 32       	cpi	r24, 0x25	; 37
    135e:	39 f4       	brne	.+14     	; 0x136e <vfprintf+0x4c>
    1360:	93 fd       	sbrc	r25, 3
    1362:	85 91       	lpm	r24, Z+
    1364:	93 ff       	sbrs	r25, 3
    1366:	81 91       	ld	r24, Z+
    1368:	6f 01       	movw	r12, r30
    136a:	85 32       	cpi	r24, 0x25	; 37
    136c:	29 f4       	brne	.+10     	; 0x1378 <vfprintf+0x56>
    136e:	b7 01       	movw	r22, r14
    1370:	90 e0       	ldi	r25, 0x00	; 0
    1372:	0e 94 9c 0b 	call	0x1738	; 0x1738 <fputc>
    1376:	e7 cf       	rjmp	.-50     	; 0x1346 <vfprintf+0x24>
    1378:	51 2c       	mov	r5, r1
    137a:	31 2c       	mov	r3, r1
    137c:	20 e0       	ldi	r18, 0x00	; 0
    137e:	20 32       	cpi	r18, 0x20	; 32
    1380:	a0 f4       	brcc	.+40     	; 0x13aa <vfprintf+0x88>
    1382:	8b 32       	cpi	r24, 0x2B	; 43
    1384:	69 f0       	breq	.+26     	; 0x13a0 <vfprintf+0x7e>
    1386:	30 f4       	brcc	.+12     	; 0x1394 <vfprintf+0x72>
    1388:	80 32       	cpi	r24, 0x20	; 32
    138a:	59 f0       	breq	.+22     	; 0x13a2 <vfprintf+0x80>
    138c:	83 32       	cpi	r24, 0x23	; 35
    138e:	69 f4       	brne	.+26     	; 0x13aa <vfprintf+0x88>
    1390:	20 61       	ori	r18, 0x10	; 16
    1392:	2c c0       	rjmp	.+88     	; 0x13ec <vfprintf+0xca>
    1394:	8d 32       	cpi	r24, 0x2D	; 45
    1396:	39 f0       	breq	.+14     	; 0x13a6 <vfprintf+0x84>
    1398:	80 33       	cpi	r24, 0x30	; 48
    139a:	39 f4       	brne	.+14     	; 0x13aa <vfprintf+0x88>
    139c:	21 60       	ori	r18, 0x01	; 1
    139e:	26 c0       	rjmp	.+76     	; 0x13ec <vfprintf+0xca>
    13a0:	22 60       	ori	r18, 0x02	; 2
    13a2:	24 60       	ori	r18, 0x04	; 4
    13a4:	23 c0       	rjmp	.+70     	; 0x13ec <vfprintf+0xca>
    13a6:	28 60       	ori	r18, 0x08	; 8
    13a8:	21 c0       	rjmp	.+66     	; 0x13ec <vfprintf+0xca>
    13aa:	27 fd       	sbrc	r18, 7
    13ac:	27 c0       	rjmp	.+78     	; 0x13fc <vfprintf+0xda>
    13ae:	30 ed       	ldi	r19, 0xD0	; 208
    13b0:	38 0f       	add	r19, r24
    13b2:	3a 30       	cpi	r19, 0x0A	; 10
    13b4:	78 f4       	brcc	.+30     	; 0x13d4 <vfprintf+0xb2>
    13b6:	26 ff       	sbrs	r18, 6
    13b8:	06 c0       	rjmp	.+12     	; 0x13c6 <vfprintf+0xa4>
    13ba:	fa e0       	ldi	r31, 0x0A	; 10
    13bc:	5f 9e       	mul	r5, r31
    13be:	30 0d       	add	r19, r0
    13c0:	11 24       	eor	r1, r1
    13c2:	53 2e       	mov	r5, r19
    13c4:	13 c0       	rjmp	.+38     	; 0x13ec <vfprintf+0xca>
    13c6:	8a e0       	ldi	r24, 0x0A	; 10
    13c8:	38 9e       	mul	r3, r24
    13ca:	30 0d       	add	r19, r0
    13cc:	11 24       	eor	r1, r1
    13ce:	33 2e       	mov	r3, r19
    13d0:	20 62       	ori	r18, 0x20	; 32
    13d2:	0c c0       	rjmp	.+24     	; 0x13ec <vfprintf+0xca>
    13d4:	8e 32       	cpi	r24, 0x2E	; 46
    13d6:	21 f4       	brne	.+8      	; 0x13e0 <vfprintf+0xbe>
    13d8:	26 fd       	sbrc	r18, 6
    13da:	6b c1       	rjmp	.+726    	; 0x16b2 <vfprintf+0x390>
    13dc:	20 64       	ori	r18, 0x40	; 64
    13de:	06 c0       	rjmp	.+12     	; 0x13ec <vfprintf+0xca>
    13e0:	8c 36       	cpi	r24, 0x6C	; 108
    13e2:	11 f4       	brne	.+4      	; 0x13e8 <vfprintf+0xc6>
    13e4:	20 68       	ori	r18, 0x80	; 128
    13e6:	02 c0       	rjmp	.+4      	; 0x13ec <vfprintf+0xca>
    13e8:	88 36       	cpi	r24, 0x68	; 104
    13ea:	41 f4       	brne	.+16     	; 0x13fc <vfprintf+0xda>
    13ec:	f6 01       	movw	r30, r12
    13ee:	93 fd       	sbrc	r25, 3
    13f0:	85 91       	lpm	r24, Z+
    13f2:	93 ff       	sbrs	r25, 3
    13f4:	81 91       	ld	r24, Z+
    13f6:	6f 01       	movw	r12, r30
    13f8:	81 11       	cpse	r24, r1
    13fa:	c1 cf       	rjmp	.-126    	; 0x137e <vfprintf+0x5c>
    13fc:	98 2f       	mov	r25, r24
    13fe:	9f 7d       	andi	r25, 0xDF	; 223
    1400:	95 54       	subi	r25, 0x45	; 69
    1402:	93 30       	cpi	r25, 0x03	; 3
    1404:	28 f4       	brcc	.+10     	; 0x1410 <vfprintf+0xee>
    1406:	0c 5f       	subi	r16, 0xFC	; 252
    1408:	1f 4f       	sbci	r17, 0xFF	; 255
    140a:	ff e3       	ldi	r31, 0x3F	; 63
    140c:	f9 83       	std	Y+1, r31	; 0x01
    140e:	0d c0       	rjmp	.+26     	; 0x142a <vfprintf+0x108>
    1410:	83 36       	cpi	r24, 0x63	; 99
    1412:	31 f0       	breq	.+12     	; 0x1420 <vfprintf+0xfe>
    1414:	83 37       	cpi	r24, 0x73	; 115
    1416:	71 f0       	breq	.+28     	; 0x1434 <vfprintf+0x112>
    1418:	83 35       	cpi	r24, 0x53	; 83
    141a:	09 f0       	breq	.+2      	; 0x141e <vfprintf+0xfc>
    141c:	5b c0       	rjmp	.+182    	; 0x14d4 <vfprintf+0x1b2>
    141e:	22 c0       	rjmp	.+68     	; 0x1464 <vfprintf+0x142>
    1420:	f8 01       	movw	r30, r16
    1422:	80 81       	ld	r24, Z
    1424:	89 83       	std	Y+1, r24	; 0x01
    1426:	0e 5f       	subi	r16, 0xFE	; 254
    1428:	1f 4f       	sbci	r17, 0xFF	; 255
    142a:	44 24       	eor	r4, r4
    142c:	43 94       	inc	r4
    142e:	51 2c       	mov	r5, r1
    1430:	54 01       	movw	r10, r8
    1432:	15 c0       	rjmp	.+42     	; 0x145e <vfprintf+0x13c>
    1434:	38 01       	movw	r6, r16
    1436:	f2 e0       	ldi	r31, 0x02	; 2
    1438:	6f 0e       	add	r6, r31
    143a:	71 1c       	adc	r7, r1
    143c:	f8 01       	movw	r30, r16
    143e:	a0 80       	ld	r10, Z
    1440:	b1 80       	ldd	r11, Z+1	; 0x01
    1442:	26 ff       	sbrs	r18, 6
    1444:	03 c0       	rjmp	.+6      	; 0x144c <vfprintf+0x12a>
    1446:	65 2d       	mov	r22, r5
    1448:	70 e0       	ldi	r23, 0x00	; 0
    144a:	02 c0       	rjmp	.+4      	; 0x1450 <vfprintf+0x12e>
    144c:	6f ef       	ldi	r22, 0xFF	; 255
    144e:	7f ef       	ldi	r23, 0xFF	; 255
    1450:	c5 01       	movw	r24, r10
    1452:	2c 87       	std	Y+12, r18	; 0x0c
    1454:	0e 94 91 0b 	call	0x1722	; 0x1722 <strnlen>
    1458:	2c 01       	movw	r4, r24
    145a:	83 01       	movw	r16, r6
    145c:	2c 85       	ldd	r18, Y+12	; 0x0c
    145e:	2f 77       	andi	r18, 0x7F	; 127
    1460:	22 2e       	mov	r2, r18
    1462:	17 c0       	rjmp	.+46     	; 0x1492 <vfprintf+0x170>
    1464:	38 01       	movw	r6, r16
    1466:	f2 e0       	ldi	r31, 0x02	; 2
    1468:	6f 0e       	add	r6, r31
    146a:	71 1c       	adc	r7, r1
    146c:	f8 01       	movw	r30, r16
    146e:	a0 80       	ld	r10, Z
    1470:	b1 80       	ldd	r11, Z+1	; 0x01
    1472:	26 ff       	sbrs	r18, 6
    1474:	03 c0       	rjmp	.+6      	; 0x147c <vfprintf+0x15a>
    1476:	65 2d       	mov	r22, r5
    1478:	70 e0       	ldi	r23, 0x00	; 0
    147a:	02 c0       	rjmp	.+4      	; 0x1480 <vfprintf+0x15e>
    147c:	6f ef       	ldi	r22, 0xFF	; 255
    147e:	7f ef       	ldi	r23, 0xFF	; 255
    1480:	c5 01       	movw	r24, r10
    1482:	2c 87       	std	Y+12, r18	; 0x0c
    1484:	0e 94 7f 0b 	call	0x16fe	; 0x16fe <strnlen_P>
    1488:	2c 01       	movw	r4, r24
    148a:	2c 85       	ldd	r18, Y+12	; 0x0c
    148c:	20 68       	ori	r18, 0x80	; 128
    148e:	22 2e       	mov	r2, r18
    1490:	83 01       	movw	r16, r6
    1492:	23 fc       	sbrc	r2, 3
    1494:	1b c0       	rjmp	.+54     	; 0x14cc <vfprintf+0x1aa>
    1496:	83 2d       	mov	r24, r3
    1498:	90 e0       	ldi	r25, 0x00	; 0
    149a:	48 16       	cp	r4, r24
    149c:	59 06       	cpc	r5, r25
    149e:	b0 f4       	brcc	.+44     	; 0x14cc <vfprintf+0x1aa>
    14a0:	b7 01       	movw	r22, r14
    14a2:	80 e2       	ldi	r24, 0x20	; 32
    14a4:	90 e0       	ldi	r25, 0x00	; 0
    14a6:	0e 94 9c 0b 	call	0x1738	; 0x1738 <fputc>
    14aa:	3a 94       	dec	r3
    14ac:	f4 cf       	rjmp	.-24     	; 0x1496 <vfprintf+0x174>
    14ae:	f5 01       	movw	r30, r10
    14b0:	27 fc       	sbrc	r2, 7
    14b2:	85 91       	lpm	r24, Z+
    14b4:	27 fe       	sbrs	r2, 7
    14b6:	81 91       	ld	r24, Z+
    14b8:	5f 01       	movw	r10, r30
    14ba:	b7 01       	movw	r22, r14
    14bc:	90 e0       	ldi	r25, 0x00	; 0
    14be:	0e 94 9c 0b 	call	0x1738	; 0x1738 <fputc>
    14c2:	31 10       	cpse	r3, r1
    14c4:	3a 94       	dec	r3
    14c6:	f1 e0       	ldi	r31, 0x01	; 1
    14c8:	4f 1a       	sub	r4, r31
    14ca:	51 08       	sbc	r5, r1
    14cc:	41 14       	cp	r4, r1
    14ce:	51 04       	cpc	r5, r1
    14d0:	71 f7       	brne	.-36     	; 0x14ae <vfprintf+0x18c>
    14d2:	e5 c0       	rjmp	.+458    	; 0x169e <vfprintf+0x37c>
    14d4:	84 36       	cpi	r24, 0x64	; 100
    14d6:	11 f0       	breq	.+4      	; 0x14dc <vfprintf+0x1ba>
    14d8:	89 36       	cpi	r24, 0x69	; 105
    14da:	39 f5       	brne	.+78     	; 0x152a <vfprintf+0x208>
    14dc:	f8 01       	movw	r30, r16
    14de:	27 ff       	sbrs	r18, 7
    14e0:	07 c0       	rjmp	.+14     	; 0x14f0 <vfprintf+0x1ce>
    14e2:	60 81       	ld	r22, Z
    14e4:	71 81       	ldd	r23, Z+1	; 0x01
    14e6:	82 81       	ldd	r24, Z+2	; 0x02
    14e8:	93 81       	ldd	r25, Z+3	; 0x03
    14ea:	0c 5f       	subi	r16, 0xFC	; 252
    14ec:	1f 4f       	sbci	r17, 0xFF	; 255
    14ee:	08 c0       	rjmp	.+16     	; 0x1500 <vfprintf+0x1de>
    14f0:	60 81       	ld	r22, Z
    14f2:	71 81       	ldd	r23, Z+1	; 0x01
    14f4:	88 27       	eor	r24, r24
    14f6:	77 fd       	sbrc	r23, 7
    14f8:	80 95       	com	r24
    14fa:	98 2f       	mov	r25, r24
    14fc:	0e 5f       	subi	r16, 0xFE	; 254
    14fe:	1f 4f       	sbci	r17, 0xFF	; 255
    1500:	2f 76       	andi	r18, 0x6F	; 111
    1502:	b2 2e       	mov	r11, r18
    1504:	97 ff       	sbrs	r25, 7
    1506:	09 c0       	rjmp	.+18     	; 0x151a <vfprintf+0x1f8>
    1508:	90 95       	com	r25
    150a:	80 95       	com	r24
    150c:	70 95       	com	r23
    150e:	61 95       	neg	r22
    1510:	7f 4f       	sbci	r23, 0xFF	; 255
    1512:	8f 4f       	sbci	r24, 0xFF	; 255
    1514:	9f 4f       	sbci	r25, 0xFF	; 255
    1516:	20 68       	ori	r18, 0x80	; 128
    1518:	b2 2e       	mov	r11, r18
    151a:	2a e0       	ldi	r18, 0x0A	; 10
    151c:	30 e0       	ldi	r19, 0x00	; 0
    151e:	a4 01       	movw	r20, r8
    1520:	0e 94 ce 0b 	call	0x179c	; 0x179c <__ultoa_invert>
    1524:	a8 2e       	mov	r10, r24
    1526:	a8 18       	sub	r10, r8
    1528:	44 c0       	rjmp	.+136    	; 0x15b2 <vfprintf+0x290>
    152a:	85 37       	cpi	r24, 0x75	; 117
    152c:	29 f4       	brne	.+10     	; 0x1538 <vfprintf+0x216>
    152e:	2f 7e       	andi	r18, 0xEF	; 239
    1530:	b2 2e       	mov	r11, r18
    1532:	2a e0       	ldi	r18, 0x0A	; 10
    1534:	30 e0       	ldi	r19, 0x00	; 0
    1536:	25 c0       	rjmp	.+74     	; 0x1582 <vfprintf+0x260>
    1538:	f2 2f       	mov	r31, r18
    153a:	f9 7f       	andi	r31, 0xF9	; 249
    153c:	bf 2e       	mov	r11, r31
    153e:	8f 36       	cpi	r24, 0x6F	; 111
    1540:	c1 f0       	breq	.+48     	; 0x1572 <vfprintf+0x250>
    1542:	18 f4       	brcc	.+6      	; 0x154a <vfprintf+0x228>
    1544:	88 35       	cpi	r24, 0x58	; 88
    1546:	79 f0       	breq	.+30     	; 0x1566 <vfprintf+0x244>
    1548:	b4 c0       	rjmp	.+360    	; 0x16b2 <vfprintf+0x390>
    154a:	80 37       	cpi	r24, 0x70	; 112
    154c:	19 f0       	breq	.+6      	; 0x1554 <vfprintf+0x232>
    154e:	88 37       	cpi	r24, 0x78	; 120
    1550:	21 f0       	breq	.+8      	; 0x155a <vfprintf+0x238>
    1552:	af c0       	rjmp	.+350    	; 0x16b2 <vfprintf+0x390>
    1554:	2f 2f       	mov	r18, r31
    1556:	20 61       	ori	r18, 0x10	; 16
    1558:	b2 2e       	mov	r11, r18
    155a:	b4 fe       	sbrs	r11, 4
    155c:	0d c0       	rjmp	.+26     	; 0x1578 <vfprintf+0x256>
    155e:	8b 2d       	mov	r24, r11
    1560:	84 60       	ori	r24, 0x04	; 4
    1562:	b8 2e       	mov	r11, r24
    1564:	09 c0       	rjmp	.+18     	; 0x1578 <vfprintf+0x256>
    1566:	24 ff       	sbrs	r18, 4
    1568:	0a c0       	rjmp	.+20     	; 0x157e <vfprintf+0x25c>
    156a:	9f 2f       	mov	r25, r31
    156c:	96 60       	ori	r25, 0x06	; 6
    156e:	b9 2e       	mov	r11, r25
    1570:	06 c0       	rjmp	.+12     	; 0x157e <vfprintf+0x25c>
    1572:	28 e0       	ldi	r18, 0x08	; 8
    1574:	30 e0       	ldi	r19, 0x00	; 0
    1576:	05 c0       	rjmp	.+10     	; 0x1582 <vfprintf+0x260>
    1578:	20 e1       	ldi	r18, 0x10	; 16
    157a:	30 e0       	ldi	r19, 0x00	; 0
    157c:	02 c0       	rjmp	.+4      	; 0x1582 <vfprintf+0x260>
    157e:	20 e1       	ldi	r18, 0x10	; 16
    1580:	32 e0       	ldi	r19, 0x02	; 2
    1582:	f8 01       	movw	r30, r16
    1584:	b7 fe       	sbrs	r11, 7
    1586:	07 c0       	rjmp	.+14     	; 0x1596 <vfprintf+0x274>
    1588:	60 81       	ld	r22, Z
    158a:	71 81       	ldd	r23, Z+1	; 0x01
    158c:	82 81       	ldd	r24, Z+2	; 0x02
    158e:	93 81       	ldd	r25, Z+3	; 0x03
    1590:	0c 5f       	subi	r16, 0xFC	; 252
    1592:	1f 4f       	sbci	r17, 0xFF	; 255
    1594:	06 c0       	rjmp	.+12     	; 0x15a2 <vfprintf+0x280>
    1596:	60 81       	ld	r22, Z
    1598:	71 81       	ldd	r23, Z+1	; 0x01
    159a:	80 e0       	ldi	r24, 0x00	; 0
    159c:	90 e0       	ldi	r25, 0x00	; 0
    159e:	0e 5f       	subi	r16, 0xFE	; 254
    15a0:	1f 4f       	sbci	r17, 0xFF	; 255
    15a2:	a4 01       	movw	r20, r8
    15a4:	0e 94 ce 0b 	call	0x179c	; 0x179c <__ultoa_invert>
    15a8:	a8 2e       	mov	r10, r24
    15aa:	a8 18       	sub	r10, r8
    15ac:	fb 2d       	mov	r31, r11
    15ae:	ff 77       	andi	r31, 0x7F	; 127
    15b0:	bf 2e       	mov	r11, r31
    15b2:	b6 fe       	sbrs	r11, 6
    15b4:	0b c0       	rjmp	.+22     	; 0x15cc <vfprintf+0x2aa>
    15b6:	2b 2d       	mov	r18, r11
    15b8:	2e 7f       	andi	r18, 0xFE	; 254
    15ba:	a5 14       	cp	r10, r5
    15bc:	50 f4       	brcc	.+20     	; 0x15d2 <vfprintf+0x2b0>
    15be:	b4 fe       	sbrs	r11, 4
    15c0:	0a c0       	rjmp	.+20     	; 0x15d6 <vfprintf+0x2b4>
    15c2:	b2 fc       	sbrc	r11, 2
    15c4:	08 c0       	rjmp	.+16     	; 0x15d6 <vfprintf+0x2b4>
    15c6:	2b 2d       	mov	r18, r11
    15c8:	2e 7e       	andi	r18, 0xEE	; 238
    15ca:	05 c0       	rjmp	.+10     	; 0x15d6 <vfprintf+0x2b4>
    15cc:	7a 2c       	mov	r7, r10
    15ce:	2b 2d       	mov	r18, r11
    15d0:	03 c0       	rjmp	.+6      	; 0x15d8 <vfprintf+0x2b6>
    15d2:	7a 2c       	mov	r7, r10
    15d4:	01 c0       	rjmp	.+2      	; 0x15d8 <vfprintf+0x2b6>
    15d6:	75 2c       	mov	r7, r5
    15d8:	24 ff       	sbrs	r18, 4
    15da:	0d c0       	rjmp	.+26     	; 0x15f6 <vfprintf+0x2d4>
    15dc:	fe 01       	movw	r30, r28
    15de:	ea 0d       	add	r30, r10
    15e0:	f1 1d       	adc	r31, r1
    15e2:	80 81       	ld	r24, Z
    15e4:	80 33       	cpi	r24, 0x30	; 48
    15e6:	11 f4       	brne	.+4      	; 0x15ec <vfprintf+0x2ca>
    15e8:	29 7e       	andi	r18, 0xE9	; 233
    15ea:	09 c0       	rjmp	.+18     	; 0x15fe <vfprintf+0x2dc>
    15ec:	22 ff       	sbrs	r18, 2
    15ee:	06 c0       	rjmp	.+12     	; 0x15fc <vfprintf+0x2da>
    15f0:	73 94       	inc	r7
    15f2:	73 94       	inc	r7
    15f4:	04 c0       	rjmp	.+8      	; 0x15fe <vfprintf+0x2dc>
    15f6:	82 2f       	mov	r24, r18
    15f8:	86 78       	andi	r24, 0x86	; 134
    15fa:	09 f0       	breq	.+2      	; 0x15fe <vfprintf+0x2dc>
    15fc:	73 94       	inc	r7
    15fe:	23 fd       	sbrc	r18, 3
    1600:	13 c0       	rjmp	.+38     	; 0x1628 <vfprintf+0x306>
    1602:	20 ff       	sbrs	r18, 0
    1604:	06 c0       	rjmp	.+12     	; 0x1612 <vfprintf+0x2f0>
    1606:	5a 2c       	mov	r5, r10
    1608:	73 14       	cp	r7, r3
    160a:	18 f4       	brcc	.+6      	; 0x1612 <vfprintf+0x2f0>
    160c:	53 0c       	add	r5, r3
    160e:	57 18       	sub	r5, r7
    1610:	73 2c       	mov	r7, r3
    1612:	73 14       	cp	r7, r3
    1614:	68 f4       	brcc	.+26     	; 0x1630 <vfprintf+0x30e>
    1616:	b7 01       	movw	r22, r14
    1618:	80 e2       	ldi	r24, 0x20	; 32
    161a:	90 e0       	ldi	r25, 0x00	; 0
    161c:	2c 87       	std	Y+12, r18	; 0x0c
    161e:	0e 94 9c 0b 	call	0x1738	; 0x1738 <fputc>
    1622:	73 94       	inc	r7
    1624:	2c 85       	ldd	r18, Y+12	; 0x0c
    1626:	f5 cf       	rjmp	.-22     	; 0x1612 <vfprintf+0x2f0>
    1628:	73 14       	cp	r7, r3
    162a:	10 f4       	brcc	.+4      	; 0x1630 <vfprintf+0x30e>
    162c:	37 18       	sub	r3, r7
    162e:	01 c0       	rjmp	.+2      	; 0x1632 <vfprintf+0x310>
    1630:	31 2c       	mov	r3, r1
    1632:	24 ff       	sbrs	r18, 4
    1634:	12 c0       	rjmp	.+36     	; 0x165a <vfprintf+0x338>
    1636:	b7 01       	movw	r22, r14
    1638:	80 e3       	ldi	r24, 0x30	; 48
    163a:	90 e0       	ldi	r25, 0x00	; 0
    163c:	2c 87       	std	Y+12, r18	; 0x0c
    163e:	0e 94 9c 0b 	call	0x1738	; 0x1738 <fputc>
    1642:	2c 85       	ldd	r18, Y+12	; 0x0c
    1644:	22 ff       	sbrs	r18, 2
    1646:	17 c0       	rjmp	.+46     	; 0x1676 <vfprintf+0x354>
    1648:	21 ff       	sbrs	r18, 1
    164a:	03 c0       	rjmp	.+6      	; 0x1652 <vfprintf+0x330>
    164c:	88 e5       	ldi	r24, 0x58	; 88
    164e:	90 e0       	ldi	r25, 0x00	; 0
    1650:	02 c0       	rjmp	.+4      	; 0x1656 <vfprintf+0x334>
    1652:	88 e7       	ldi	r24, 0x78	; 120
    1654:	90 e0       	ldi	r25, 0x00	; 0
    1656:	b7 01       	movw	r22, r14
    1658:	0c c0       	rjmp	.+24     	; 0x1672 <vfprintf+0x350>
    165a:	82 2f       	mov	r24, r18
    165c:	86 78       	andi	r24, 0x86	; 134
    165e:	59 f0       	breq	.+22     	; 0x1676 <vfprintf+0x354>
    1660:	21 fd       	sbrc	r18, 1
    1662:	02 c0       	rjmp	.+4      	; 0x1668 <vfprintf+0x346>
    1664:	80 e2       	ldi	r24, 0x20	; 32
    1666:	01 c0       	rjmp	.+2      	; 0x166a <vfprintf+0x348>
    1668:	8b e2       	ldi	r24, 0x2B	; 43
    166a:	27 fd       	sbrc	r18, 7
    166c:	8d e2       	ldi	r24, 0x2D	; 45
    166e:	b7 01       	movw	r22, r14
    1670:	90 e0       	ldi	r25, 0x00	; 0
    1672:	0e 94 9c 0b 	call	0x1738	; 0x1738 <fputc>
    1676:	a5 14       	cp	r10, r5
    1678:	38 f4       	brcc	.+14     	; 0x1688 <vfprintf+0x366>
    167a:	b7 01       	movw	r22, r14
    167c:	80 e3       	ldi	r24, 0x30	; 48
    167e:	90 e0       	ldi	r25, 0x00	; 0
    1680:	0e 94 9c 0b 	call	0x1738	; 0x1738 <fputc>
    1684:	5a 94       	dec	r5
    1686:	f7 cf       	rjmp	.-18     	; 0x1676 <vfprintf+0x354>
    1688:	aa 94       	dec	r10
    168a:	f4 01       	movw	r30, r8
    168c:	ea 0d       	add	r30, r10
    168e:	f1 1d       	adc	r31, r1
    1690:	80 81       	ld	r24, Z
    1692:	b7 01       	movw	r22, r14
    1694:	90 e0       	ldi	r25, 0x00	; 0
    1696:	0e 94 9c 0b 	call	0x1738	; 0x1738 <fputc>
    169a:	a1 10       	cpse	r10, r1
    169c:	f5 cf       	rjmp	.-22     	; 0x1688 <vfprintf+0x366>
    169e:	33 20       	and	r3, r3
    16a0:	09 f4       	brne	.+2      	; 0x16a4 <vfprintf+0x382>
    16a2:	51 ce       	rjmp	.-862    	; 0x1346 <vfprintf+0x24>
    16a4:	b7 01       	movw	r22, r14
    16a6:	80 e2       	ldi	r24, 0x20	; 32
    16a8:	90 e0       	ldi	r25, 0x00	; 0
    16aa:	0e 94 9c 0b 	call	0x1738	; 0x1738 <fputc>
    16ae:	3a 94       	dec	r3
    16b0:	f6 cf       	rjmp	.-20     	; 0x169e <vfprintf+0x37c>
    16b2:	f7 01       	movw	r30, r14
    16b4:	86 81       	ldd	r24, Z+6	; 0x06
    16b6:	97 81       	ldd	r25, Z+7	; 0x07
    16b8:	02 c0       	rjmp	.+4      	; 0x16be <vfprintf+0x39c>
    16ba:	8f ef       	ldi	r24, 0xFF	; 255
    16bc:	9f ef       	ldi	r25, 0xFF	; 255
    16be:	2c 96       	adiw	r28, 0x0c	; 12
    16c0:	e2 e1       	ldi	r30, 0x12	; 18
    16c2:	0c 94 48 0c 	jmp	0x1890	; 0x1890 <__epilogue_restores__>

000016c6 <calloc>:
    16c6:	0f 93       	push	r16
    16c8:	1f 93       	push	r17
    16ca:	cf 93       	push	r28
    16cc:	df 93       	push	r29
    16ce:	86 9f       	mul	r24, r22
    16d0:	80 01       	movw	r16, r0
    16d2:	87 9f       	mul	r24, r23
    16d4:	10 0d       	add	r17, r0
    16d6:	96 9f       	mul	r25, r22
    16d8:	10 0d       	add	r17, r0
    16da:	11 24       	eor	r1, r1
    16dc:	c8 01       	movw	r24, r16
    16de:	0e 94 de 07 	call	0xfbc	; 0xfbc <malloc>
    16e2:	ec 01       	movw	r28, r24
    16e4:	00 97       	sbiw	r24, 0x00	; 0
    16e6:	29 f0       	breq	.+10     	; 0x16f2 <calloc+0x2c>
    16e8:	a8 01       	movw	r20, r16
    16ea:	60 e0       	ldi	r22, 0x00	; 0
    16ec:	70 e0       	ldi	r23, 0x00	; 0
    16ee:	0e 94 8a 0b 	call	0x1714	; 0x1714 <memset>
    16f2:	ce 01       	movw	r24, r28
    16f4:	df 91       	pop	r29
    16f6:	cf 91       	pop	r28
    16f8:	1f 91       	pop	r17
    16fa:	0f 91       	pop	r16
    16fc:	08 95       	ret

000016fe <strnlen_P>:
    16fe:	fc 01       	movw	r30, r24
    1700:	05 90       	lpm	r0, Z+
    1702:	61 50       	subi	r22, 0x01	; 1
    1704:	70 40       	sbci	r23, 0x00	; 0
    1706:	01 10       	cpse	r0, r1
    1708:	d8 f7       	brcc	.-10     	; 0x1700 <strnlen_P+0x2>
    170a:	80 95       	com	r24
    170c:	90 95       	com	r25
    170e:	8e 0f       	add	r24, r30
    1710:	9f 1f       	adc	r25, r31
    1712:	08 95       	ret

00001714 <memset>:
    1714:	dc 01       	movw	r26, r24
    1716:	01 c0       	rjmp	.+2      	; 0x171a <memset+0x6>
    1718:	6d 93       	st	X+, r22
    171a:	41 50       	subi	r20, 0x01	; 1
    171c:	50 40       	sbci	r21, 0x00	; 0
    171e:	e0 f7       	brcc	.-8      	; 0x1718 <memset+0x4>
    1720:	08 95       	ret

00001722 <strnlen>:
    1722:	fc 01       	movw	r30, r24
    1724:	61 50       	subi	r22, 0x01	; 1
    1726:	70 40       	sbci	r23, 0x00	; 0
    1728:	01 90       	ld	r0, Z+
    172a:	01 10       	cpse	r0, r1
    172c:	d8 f7       	brcc	.-10     	; 0x1724 <strnlen+0x2>
    172e:	80 95       	com	r24
    1730:	90 95       	com	r25
    1732:	8e 0f       	add	r24, r30
    1734:	9f 1f       	adc	r25, r31
    1736:	08 95       	ret

00001738 <fputc>:
    1738:	0f 93       	push	r16
    173a:	1f 93       	push	r17
    173c:	cf 93       	push	r28
    173e:	df 93       	push	r29
    1740:	18 2f       	mov	r17, r24
    1742:	09 2f       	mov	r16, r25
    1744:	eb 01       	movw	r28, r22
    1746:	8b 81       	ldd	r24, Y+3	; 0x03
    1748:	81 fd       	sbrc	r24, 1
    174a:	03 c0       	rjmp	.+6      	; 0x1752 <fputc+0x1a>
    174c:	8f ef       	ldi	r24, 0xFF	; 255
    174e:	9f ef       	ldi	r25, 0xFF	; 255
    1750:	20 c0       	rjmp	.+64     	; 0x1792 <fputc+0x5a>
    1752:	82 ff       	sbrs	r24, 2
    1754:	10 c0       	rjmp	.+32     	; 0x1776 <fputc+0x3e>
    1756:	4e 81       	ldd	r20, Y+6	; 0x06
    1758:	5f 81       	ldd	r21, Y+7	; 0x07
    175a:	2c 81       	ldd	r18, Y+4	; 0x04
    175c:	3d 81       	ldd	r19, Y+5	; 0x05
    175e:	42 17       	cp	r20, r18
    1760:	53 07       	cpc	r21, r19
    1762:	7c f4       	brge	.+30     	; 0x1782 <fputc+0x4a>
    1764:	e8 81       	ld	r30, Y
    1766:	f9 81       	ldd	r31, Y+1	; 0x01
    1768:	9f 01       	movw	r18, r30
    176a:	2f 5f       	subi	r18, 0xFF	; 255
    176c:	3f 4f       	sbci	r19, 0xFF	; 255
    176e:	39 83       	std	Y+1, r19	; 0x01
    1770:	28 83       	st	Y, r18
    1772:	10 83       	st	Z, r17
    1774:	06 c0       	rjmp	.+12     	; 0x1782 <fputc+0x4a>
    1776:	e8 85       	ldd	r30, Y+8	; 0x08
    1778:	f9 85       	ldd	r31, Y+9	; 0x09
    177a:	81 2f       	mov	r24, r17
    177c:	09 95       	icall
    177e:	89 2b       	or	r24, r25
    1780:	29 f7       	brne	.-54     	; 0x174c <fputc+0x14>
    1782:	2e 81       	ldd	r18, Y+6	; 0x06
    1784:	3f 81       	ldd	r19, Y+7	; 0x07
    1786:	2f 5f       	subi	r18, 0xFF	; 255
    1788:	3f 4f       	sbci	r19, 0xFF	; 255
    178a:	3f 83       	std	Y+7, r19	; 0x07
    178c:	2e 83       	std	Y+6, r18	; 0x06
    178e:	81 2f       	mov	r24, r17
    1790:	90 2f       	mov	r25, r16
    1792:	df 91       	pop	r29
    1794:	cf 91       	pop	r28
    1796:	1f 91       	pop	r17
    1798:	0f 91       	pop	r16
    179a:	08 95       	ret

0000179c <__ultoa_invert>:
    179c:	fa 01       	movw	r30, r20
    179e:	aa 27       	eor	r26, r26
    17a0:	28 30       	cpi	r18, 0x08	; 8
    17a2:	51 f1       	breq	.+84     	; 0x17f8 <__ultoa_invert+0x5c>
    17a4:	20 31       	cpi	r18, 0x10	; 16
    17a6:	81 f1       	breq	.+96     	; 0x1808 <__ultoa_invert+0x6c>
    17a8:	e8 94       	clt
    17aa:	6f 93       	push	r22
    17ac:	6e 7f       	andi	r22, 0xFE	; 254
    17ae:	6e 5f       	subi	r22, 0xFE	; 254
    17b0:	7f 4f       	sbci	r23, 0xFF	; 255
    17b2:	8f 4f       	sbci	r24, 0xFF	; 255
    17b4:	9f 4f       	sbci	r25, 0xFF	; 255
    17b6:	af 4f       	sbci	r26, 0xFF	; 255
    17b8:	b1 e0       	ldi	r27, 0x01	; 1
    17ba:	3e d0       	rcall	.+124    	; 0x1838 <__ultoa_invert+0x9c>
    17bc:	b4 e0       	ldi	r27, 0x04	; 4
    17be:	3c d0       	rcall	.+120    	; 0x1838 <__ultoa_invert+0x9c>
    17c0:	67 0f       	add	r22, r23
    17c2:	78 1f       	adc	r23, r24
    17c4:	89 1f       	adc	r24, r25
    17c6:	9a 1f       	adc	r25, r26
    17c8:	a1 1d       	adc	r26, r1
    17ca:	68 0f       	add	r22, r24
    17cc:	79 1f       	adc	r23, r25
    17ce:	8a 1f       	adc	r24, r26
    17d0:	91 1d       	adc	r25, r1
    17d2:	a1 1d       	adc	r26, r1
    17d4:	6a 0f       	add	r22, r26
    17d6:	71 1d       	adc	r23, r1
    17d8:	81 1d       	adc	r24, r1
    17da:	91 1d       	adc	r25, r1
    17dc:	a1 1d       	adc	r26, r1
    17de:	20 d0       	rcall	.+64     	; 0x1820 <__ultoa_invert+0x84>
    17e0:	09 f4       	brne	.+2      	; 0x17e4 <__ultoa_invert+0x48>
    17e2:	68 94       	set
    17e4:	3f 91       	pop	r19
    17e6:	2a e0       	ldi	r18, 0x0A	; 10
    17e8:	26 9f       	mul	r18, r22
    17ea:	11 24       	eor	r1, r1
    17ec:	30 19       	sub	r19, r0
    17ee:	30 5d       	subi	r19, 0xD0	; 208
    17f0:	31 93       	st	Z+, r19
    17f2:	de f6       	brtc	.-74     	; 0x17aa <__ultoa_invert+0xe>
    17f4:	cf 01       	movw	r24, r30
    17f6:	08 95       	ret
    17f8:	46 2f       	mov	r20, r22
    17fa:	47 70       	andi	r20, 0x07	; 7
    17fc:	40 5d       	subi	r20, 0xD0	; 208
    17fe:	41 93       	st	Z+, r20
    1800:	b3 e0       	ldi	r27, 0x03	; 3
    1802:	0f d0       	rcall	.+30     	; 0x1822 <__ultoa_invert+0x86>
    1804:	c9 f7       	brne	.-14     	; 0x17f8 <__ultoa_invert+0x5c>
    1806:	f6 cf       	rjmp	.-20     	; 0x17f4 <__ultoa_invert+0x58>
    1808:	46 2f       	mov	r20, r22
    180a:	4f 70       	andi	r20, 0x0F	; 15
    180c:	40 5d       	subi	r20, 0xD0	; 208
    180e:	4a 33       	cpi	r20, 0x3A	; 58
    1810:	18 f0       	brcs	.+6      	; 0x1818 <__ultoa_invert+0x7c>
    1812:	49 5d       	subi	r20, 0xD9	; 217
    1814:	31 fd       	sbrc	r19, 1
    1816:	40 52       	subi	r20, 0x20	; 32
    1818:	41 93       	st	Z+, r20
    181a:	02 d0       	rcall	.+4      	; 0x1820 <__ultoa_invert+0x84>
    181c:	a9 f7       	brne	.-22     	; 0x1808 <__ultoa_invert+0x6c>
    181e:	ea cf       	rjmp	.-44     	; 0x17f4 <__ultoa_invert+0x58>
    1820:	b4 e0       	ldi	r27, 0x04	; 4
    1822:	a6 95       	lsr	r26
    1824:	97 95       	ror	r25
    1826:	87 95       	ror	r24
    1828:	77 95       	ror	r23
    182a:	67 95       	ror	r22
    182c:	ba 95       	dec	r27
    182e:	c9 f7       	brne	.-14     	; 0x1822 <__ultoa_invert+0x86>
    1830:	00 97       	sbiw	r24, 0x00	; 0
    1832:	61 05       	cpc	r22, r1
    1834:	71 05       	cpc	r23, r1
    1836:	08 95       	ret
    1838:	9b 01       	movw	r18, r22
    183a:	ac 01       	movw	r20, r24
    183c:	0a 2e       	mov	r0, r26
    183e:	06 94       	lsr	r0
    1840:	57 95       	ror	r21
    1842:	47 95       	ror	r20
    1844:	37 95       	ror	r19
    1846:	27 95       	ror	r18
    1848:	ba 95       	dec	r27
    184a:	c9 f7       	brne	.-14     	; 0x183e <__ultoa_invert+0xa2>
    184c:	62 0f       	add	r22, r18
    184e:	73 1f       	adc	r23, r19
    1850:	84 1f       	adc	r24, r20
    1852:	95 1f       	adc	r25, r21
    1854:	a0 1d       	adc	r26, r0
    1856:	08 95       	ret

00001858 <__prologue_saves__>:
    1858:	2f 92       	push	r2
    185a:	3f 92       	push	r3
    185c:	4f 92       	push	r4
    185e:	5f 92       	push	r5
    1860:	6f 92       	push	r6
    1862:	7f 92       	push	r7
    1864:	8f 92       	push	r8
    1866:	9f 92       	push	r9
    1868:	af 92       	push	r10
    186a:	bf 92       	push	r11
    186c:	cf 92       	push	r12
    186e:	df 92       	push	r13
    1870:	ef 92       	push	r14
    1872:	ff 92       	push	r15
    1874:	0f 93       	push	r16
    1876:	1f 93       	push	r17
    1878:	cf 93       	push	r28
    187a:	df 93       	push	r29
    187c:	cd b7       	in	r28, 0x3d	; 61
    187e:	de b7       	in	r29, 0x3e	; 62
    1880:	ca 1b       	sub	r28, r26
    1882:	db 0b       	sbc	r29, r27
    1884:	0f b6       	in	r0, 0x3f	; 63
    1886:	f8 94       	cli
    1888:	de bf       	out	0x3e, r29	; 62
    188a:	0f be       	out	0x3f, r0	; 63
    188c:	cd bf       	out	0x3d, r28	; 61
    188e:	09 94       	ijmp

00001890 <__epilogue_restores__>:
    1890:	2a 88       	ldd	r2, Y+18	; 0x12
    1892:	39 88       	ldd	r3, Y+17	; 0x11
    1894:	48 88       	ldd	r4, Y+16	; 0x10
    1896:	5f 84       	ldd	r5, Y+15	; 0x0f
    1898:	6e 84       	ldd	r6, Y+14	; 0x0e
    189a:	7d 84       	ldd	r7, Y+13	; 0x0d
    189c:	8c 84       	ldd	r8, Y+12	; 0x0c
    189e:	9b 84       	ldd	r9, Y+11	; 0x0b
    18a0:	aa 84       	ldd	r10, Y+10	; 0x0a
    18a2:	b9 84       	ldd	r11, Y+9	; 0x09
    18a4:	c8 84       	ldd	r12, Y+8	; 0x08
    18a6:	df 80       	ldd	r13, Y+7	; 0x07
    18a8:	ee 80       	ldd	r14, Y+6	; 0x06
    18aa:	fd 80       	ldd	r15, Y+5	; 0x05
    18ac:	0c 81       	ldd	r16, Y+4	; 0x04
    18ae:	1b 81       	ldd	r17, Y+3	; 0x03
    18b0:	aa 81       	ldd	r26, Y+2	; 0x02
    18b2:	b9 81       	ldd	r27, Y+1	; 0x01
    18b4:	ce 0f       	add	r28, r30
    18b6:	d1 1d       	adc	r29, r1
    18b8:	0f b6       	in	r0, 0x3f	; 63
    18ba:	f8 94       	cli
    18bc:	de bf       	out	0x3e, r29	; 62
    18be:	0f be       	out	0x3f, r0	; 63
    18c0:	cd bf       	out	0x3d, r28	; 61
    18c2:	ed 01       	movw	r28, r26
    18c4:	08 95       	ret

000018c6 <_exit>:
    18c6:	f8 94       	cli

000018c8 <__stop_program>:
    18c8:	ff cf       	rjmp	.-2      	; 0x18c8 <__stop_program>
