
node2.elf:     file format elf32-avr

Sections:
Idx Name          Size      VMA       LMA       File off  Algn
  0 .data         00000092  00800200  00001ad0  00001b64  2**0
                  CONTENTS, ALLOC, LOAD, DATA
  1 .text         00001ad0  00000000  00000000  00000094  2**1
                  CONTENTS, ALLOC, LOAD, READONLY, CODE
  2 .bss          00000039  00800292  00800292  00001bf6  2**0
                  ALLOC
  3 .comment      0000005c  00000000  00000000  00001bf6  2**0
                  CONTENTS, READONLY
  4 .debug_aranges 00000310  00000000  00000000  00001c52  2**0
                  CONTENTS, READONLY, DEBUGGING
  5 .debug_info   00002396  00000000  00000000  00001f62  2**0
                  CONTENTS, READONLY, DEBUGGING
  6 .debug_abbrev 000012a1  00000000  00000000  000042f8  2**0
                  CONTENTS, READONLY, DEBUGGING
  7 .debug_line   000019f1  00000000  00000000  00005599  2**0
                  CONTENTS, READONLY, DEBUGGING
  8 .debug_frame  0000066c  00000000  00000000  00006f8c  2**2
                  CONTENTS, READONLY, DEBUGGING
  9 .debug_str    00000b6a  00000000  00000000  000075f8  2**0
                  CONTENTS, READONLY, DEBUGGING
 10 .debug_loc    00001301  00000000  00000000  00008162  2**0
                  CONTENTS, READONLY, DEBUGGING
 11 .debug_ranges 00000250  00000000  00000000  00009463  2**0
                  CONTENTS, READONLY, DEBUGGING

Disassembly of section .text:

00000000 <__vectors>:
       0:	c2 c0       	rjmp	.+388    	; 0x186 <__ctors_end>
       2:	00 00       	nop
       4:	e0 c0       	rjmp	.+448    	; 0x1c6 <__bad_interrupt>
       6:	00 00       	nop
       8:	de c0       	rjmp	.+444    	; 0x1c6 <__bad_interrupt>
       a:	00 00       	nop
       c:	61 c5       	rjmp	.+2754   	; 0xad0 <__vector_3>
       e:	00 00       	nop
      10:	da c0       	rjmp	.+436    	; 0x1c6 <__bad_interrupt>
      12:	00 00       	nop
      14:	d8 c0       	rjmp	.+432    	; 0x1c6 <__bad_interrupt>
      16:	00 00       	nop
      18:	d6 c0       	rjmp	.+428    	; 0x1c6 <__bad_interrupt>
      1a:	00 00       	nop
      1c:	d4 c0       	rjmp	.+424    	; 0x1c6 <__bad_interrupt>
      1e:	00 00       	nop
      20:	d2 c0       	rjmp	.+420    	; 0x1c6 <__bad_interrupt>
      22:	00 00       	nop
      24:	d0 c0       	rjmp	.+416    	; 0x1c6 <__bad_interrupt>
      26:	00 00       	nop
      28:	ce c0       	rjmp	.+412    	; 0x1c6 <__bad_interrupt>
      2a:	00 00       	nop
      2c:	cc c0       	rjmp	.+408    	; 0x1c6 <__bad_interrupt>
      2e:	00 00       	nop
      30:	ca c0       	rjmp	.+404    	; 0x1c6 <__bad_interrupt>
      32:	00 00       	nop
      34:	c8 c0       	rjmp	.+400    	; 0x1c6 <__bad_interrupt>
      36:	00 00       	nop
      38:	c6 c0       	rjmp	.+396    	; 0x1c6 <__bad_interrupt>
      3a:	00 00       	nop
      3c:	c4 c0       	rjmp	.+392    	; 0x1c6 <__bad_interrupt>
      3e:	00 00       	nop
      40:	c2 c0       	rjmp	.+388    	; 0x1c6 <__bad_interrupt>
      42:	00 00       	nop
      44:	c0 c0       	rjmp	.+384    	; 0x1c6 <__bad_interrupt>
      46:	00 00       	nop
      48:	be c0       	rjmp	.+380    	; 0x1c6 <__bad_interrupt>
      4a:	00 00       	nop
      4c:	bc c0       	rjmp	.+376    	; 0x1c6 <__bad_interrupt>
      4e:	00 00       	nop
      50:	ba c0       	rjmp	.+372    	; 0x1c6 <__bad_interrupt>
      52:	00 00       	nop
      54:	b8 c0       	rjmp	.+368    	; 0x1c6 <__bad_interrupt>
      56:	00 00       	nop
      58:	b6 c0       	rjmp	.+364    	; 0x1c6 <__bad_interrupt>
      5a:	00 00       	nop
      5c:	b4 c0       	rjmp	.+360    	; 0x1c6 <__bad_interrupt>
      5e:	00 00       	nop
      60:	b2 c0       	rjmp	.+356    	; 0x1c6 <__bad_interrupt>
      62:	00 00       	nop
      64:	b0 c0       	rjmp	.+352    	; 0x1c6 <__bad_interrupt>
      66:	00 00       	nop
      68:	ae c0       	rjmp	.+348    	; 0x1c6 <__bad_interrupt>
      6a:	00 00       	nop
      6c:	ac c0       	rjmp	.+344    	; 0x1c6 <__bad_interrupt>
      6e:	00 00       	nop
      70:	aa c0       	rjmp	.+340    	; 0x1c6 <__bad_interrupt>
      72:	00 00       	nop
      74:	41 c5       	rjmp	.+2690   	; 0xaf8 <__vector_29>
      76:	00 00       	nop
      78:	a6 c0       	rjmp	.+332    	; 0x1c6 <__bad_interrupt>
      7a:	00 00       	nop
      7c:	a4 c0       	rjmp	.+328    	; 0x1c6 <__bad_interrupt>
      7e:	00 00       	nop
      80:	4f c5       	rjmp	.+2718   	; 0xb20 <__vector_32>
      82:	00 00       	nop
      84:	a0 c0       	rjmp	.+320    	; 0x1c6 <__bad_interrupt>
      86:	00 00       	nop
      88:	9e c0       	rjmp	.+316    	; 0x1c6 <__bad_interrupt>
      8a:	00 00       	nop
      8c:	9c c0       	rjmp	.+312    	; 0x1c6 <__bad_interrupt>
      8e:	00 00       	nop
      90:	9a c0       	rjmp	.+308    	; 0x1c6 <__bad_interrupt>
      92:	00 00       	nop
      94:	98 c0       	rjmp	.+304    	; 0x1c6 <__bad_interrupt>
      96:	00 00       	nop
      98:	96 c0       	rjmp	.+300    	; 0x1c6 <__bad_interrupt>
      9a:	00 00       	nop
      9c:	15 c6       	rjmp	.+3114   	; 0xcc8 <__vector_39>
      9e:	00 00       	nop
      a0:	92 c0       	rjmp	.+292    	; 0x1c6 <__bad_interrupt>
      a2:	00 00       	nop
      a4:	90 c0       	rjmp	.+288    	; 0x1c6 <__bad_interrupt>
      a6:	00 00       	nop
      a8:	8e c0       	rjmp	.+284    	; 0x1c6 <__bad_interrupt>
      aa:	00 00       	nop
      ac:	8c c0       	rjmp	.+280    	; 0x1c6 <__bad_interrupt>
      ae:	00 00       	nop
      b0:	8a c0       	rjmp	.+276    	; 0x1c6 <__bad_interrupt>
      b2:	00 00       	nop
      b4:	88 c0       	rjmp	.+272    	; 0x1c6 <__bad_interrupt>
      b6:	00 00       	nop
      b8:	86 c0       	rjmp	.+268    	; 0x1c6 <__bad_interrupt>
      ba:	00 00       	nop
      bc:	84 c0       	rjmp	.+264    	; 0x1c6 <__bad_interrupt>
      be:	00 00       	nop
      c0:	82 c0       	rjmp	.+260    	; 0x1c6 <__bad_interrupt>
      c2:	00 00       	nop
      c4:	80 c0       	rjmp	.+256    	; 0x1c6 <__bad_interrupt>
      c6:	00 00       	nop
      c8:	7e c0       	rjmp	.+252    	; 0x1c6 <__bad_interrupt>
      ca:	00 00       	nop
      cc:	7c c0       	rjmp	.+248    	; 0x1c6 <__bad_interrupt>
      ce:	00 00       	nop
      d0:	7a c0       	rjmp	.+244    	; 0x1c6 <__bad_interrupt>
      d2:	00 00       	nop
      d4:	78 c0       	rjmp	.+240    	; 0x1c6 <__bad_interrupt>
      d6:	00 00       	nop
      d8:	76 c0       	rjmp	.+236    	; 0x1c6 <__bad_interrupt>
      da:	00 00       	nop
      dc:	74 c0       	rjmp	.+232    	; 0x1c6 <__bad_interrupt>
      de:	00 00       	nop
      e0:	72 c0       	rjmp	.+228    	; 0x1c6 <__bad_interrupt>
      e2:	00 00       	nop
      e4:	7f 06       	cpc	r7, r31
      e6:	d1 06       	cpc	r13, r17
      e8:	d1 06       	cpc	r13, r17
      ea:	d1 06       	cpc	r13, r17
      ec:	d1 06       	cpc	r13, r17
      ee:	d1 06       	cpc	r13, r17
      f0:	d1 06       	cpc	r13, r17
      f2:	d1 06       	cpc	r13, r17
      f4:	7f 06       	cpc	r7, r31
      f6:	d1 06       	cpc	r13, r17
      f8:	d1 06       	cpc	r13, r17
      fa:	d1 06       	cpc	r13, r17
      fc:	d1 06       	cpc	r13, r17
      fe:	d1 06       	cpc	r13, r17
     100:	d1 06       	cpc	r13, r17
     102:	d1 06       	cpc	r13, r17
     104:	81 06       	cpc	r8, r17
     106:	d1 06       	cpc	r13, r17
     108:	d1 06       	cpc	r13, r17
     10a:	d1 06       	cpc	r13, r17
     10c:	d1 06       	cpc	r13, r17
     10e:	d1 06       	cpc	r13, r17
     110:	d1 06       	cpc	r13, r17
     112:	d1 06       	cpc	r13, r17
     114:	d1 06       	cpc	r13, r17
     116:	d1 06       	cpc	r13, r17
     118:	d1 06       	cpc	r13, r17
     11a:	d1 06       	cpc	r13, r17
     11c:	d1 06       	cpc	r13, r17
     11e:	d1 06       	cpc	r13, r17
     120:	d1 06       	cpc	r13, r17
     122:	d1 06       	cpc	r13, r17
     124:	81 06       	cpc	r8, r17
     126:	d1 06       	cpc	r13, r17
     128:	d1 06       	cpc	r13, r17
     12a:	d1 06       	cpc	r13, r17
     12c:	d1 06       	cpc	r13, r17
     12e:	d1 06       	cpc	r13, r17
     130:	d1 06       	cpc	r13, r17
     132:	d1 06       	cpc	r13, r17
     134:	d1 06       	cpc	r13, r17
     136:	d1 06       	cpc	r13, r17
     138:	d1 06       	cpc	r13, r17
     13a:	d1 06       	cpc	r13, r17
     13c:	d1 06       	cpc	r13, r17
     13e:	d1 06       	cpc	r13, r17
     140:	d1 06       	cpc	r13, r17
     142:	d1 06       	cpc	r13, r17
     144:	cd 06       	cpc	r12, r29
     146:	d1 06       	cpc	r13, r17
     148:	d1 06       	cpc	r13, r17
     14a:	d1 06       	cpc	r13, r17
     14c:	d1 06       	cpc	r13, r17
     14e:	d1 06       	cpc	r13, r17
     150:	d1 06       	cpc	r13, r17
     152:	d1 06       	cpc	r13, r17
     154:	aa 06       	cpc	r10, r26
     156:	d1 06       	cpc	r13, r17
     158:	d1 06       	cpc	r13, r17
     15a:	d1 06       	cpc	r13, r17
     15c:	d1 06       	cpc	r13, r17
     15e:	d1 06       	cpc	r13, r17
     160:	d1 06       	cpc	r13, r17
     162:	d1 06       	cpc	r13, r17
     164:	d1 06       	cpc	r13, r17
     166:	d1 06       	cpc	r13, r17
     168:	d1 06       	cpc	r13, r17
     16a:	d1 06       	cpc	r13, r17
     16c:	d1 06       	cpc	r13, r17
     16e:	d1 06       	cpc	r13, r17
     170:	d1 06       	cpc	r13, r17
     172:	d1 06       	cpc	r13, r17
     174:	9e 06       	cpc	r9, r30
     176:	d1 06       	cpc	r13, r17
     178:	d1 06       	cpc	r13, r17
     17a:	d1 06       	cpc	r13, r17
     17c:	d1 06       	cpc	r13, r17
     17e:	d1 06       	cpc	r13, r17
     180:	d1 06       	cpc	r13, r17
     182:	d1 06       	cpc	r13, r17
     184:	bc 06       	cpc	r11, r28

00000186 <__ctors_end>:
     186:	11 24       	eor	r1, r1
     188:	1f be       	out	0x3f, r1	; 63
     18a:	cf ef       	ldi	r28, 0xFF	; 255
     18c:	d1 e2       	ldi	r29, 0x21	; 33
     18e:	de bf       	out	0x3e, r29	; 62
     190:	cd bf       	out	0x3d, r28	; 61
     192:	00 e0       	ldi	r16, 0x00	; 0
     194:	0c bf       	out	0x3c, r16	; 60

00000196 <__do_copy_data>:
     196:	12 e0       	ldi	r17, 0x02	; 2
     198:	a0 e0       	ldi	r26, 0x00	; 0
     19a:	b2 e0       	ldi	r27, 0x02	; 2
     19c:	e0 ed       	ldi	r30, 0xD0	; 208
     19e:	fa e1       	ldi	r31, 0x1A	; 26
     1a0:	00 e0       	ldi	r16, 0x00	; 0
     1a2:	0b bf       	out	0x3b, r16	; 59
     1a4:	02 c0       	rjmp	.+4      	; 0x1aa <__do_copy_data+0x14>
     1a6:	07 90       	elpm	r0, Z+
     1a8:	0d 92       	st	X+, r0
     1aa:	a2 39       	cpi	r26, 0x92	; 146
     1ac:	b1 07       	cpc	r27, r17
     1ae:	d9 f7       	brne	.-10     	; 0x1a6 <__do_copy_data+0x10>

000001b0 <__do_clear_bss>:
     1b0:	22 e0       	ldi	r18, 0x02	; 2
     1b2:	a2 e9       	ldi	r26, 0x92	; 146
     1b4:	b2 e0       	ldi	r27, 0x02	; 2
     1b6:	01 c0       	rjmp	.+2      	; 0x1ba <.do_clear_bss_start>

000001b8 <.do_clear_bss_loop>:
     1b8:	1d 92       	st	X+, r1

000001ba <.do_clear_bss_start>:
     1ba:	ab 3c       	cpi	r26, 0xCB	; 203
     1bc:	b2 07       	cpc	r27, r18
     1be:	e1 f7       	brne	.-8      	; 0x1b8 <.do_clear_bss_loop>
     1c0:	b0 d3       	rcall	.+1888   	; 0x922 <main>
     1c2:	0c 94 66 0d 	jmp	0x1acc	; 0x1acc <_exit>

000001c6 <__bad_interrupt>:
     1c6:	1c cf       	rjmp	.-456    	; 0x0 <__vectors>

000001c8 <can_init>:
     1c8:	4a d1       	rcall	.+660    	; 0x45e <mcp2515_init>
     1ca:	43 e0       	ldi	r20, 0x03	; 3
     1cc:	63 e0       	ldi	r22, 0x03	; 3
     1ce:	8b e2       	ldi	r24, 0x2B	; 43
     1d0:	6f d1       	rcall	.+734    	; 0x4b0 <mcp2515_bit_modify>
     1d2:	60 e0       	ldi	r22, 0x00	; 0
     1d4:	80 e2       	ldi	r24, 0x20	; 32
     1d6:	2f d1       	rcall	.+606    	; 0x436 <mcp2515_write>
     1d8:	60 e0       	ldi	r22, 0x00	; 0
     1da:	81 e2       	ldi	r24, 0x21	; 33
     1dc:	2c d1       	rcall	.+600    	; 0x436 <mcp2515_write>
     1de:	60 e0       	ldi	r22, 0x00	; 0
     1e0:	84 e2       	ldi	r24, 0x24	; 36
     1e2:	29 d1       	rcall	.+594    	; 0x436 <mcp2515_write>
     1e4:	60 e0       	ldi	r22, 0x00	; 0
     1e6:	85 e2       	ldi	r24, 0x25	; 37
     1e8:	26 d1       	rcall	.+588    	; 0x436 <mcp2515_write>
     1ea:	40 e0       	ldi	r20, 0x00	; 0
     1ec:	60 ee       	ldi	r22, 0xE0	; 224
     1ee:	8f e0       	ldi	r24, 0x0F	; 15
     1f0:	5f c1       	rjmp	.+702    	; 0x4b0 <mcp2515_bit_modify>
     1f2:	08 95       	ret

000001f4 <can_send_message>:
     1f4:	ef 92       	push	r14
     1f6:	ff 92       	push	r15
     1f8:	0f 93       	push	r16
     1fa:	1f 93       	push	r17
     1fc:	cf 93       	push	r28
     1fe:	df 93       	push	r29
     200:	7c 01       	movw	r14, r24
     202:	80 e3       	ldi	r24, 0x30	; 48
     204:	0d d1       	rcall	.+538    	; 0x420 <mcp2515_read>
     206:	83 fd       	sbrc	r24, 3
     208:	fc cf       	rjmp	.-8      	; 0x202 <can_send_message+0xe>
     20a:	f7 01       	movw	r30, r14
     20c:	60 81       	ld	r22, Z
     20e:	62 95       	swap	r22
     210:	66 0f       	add	r22, r22
     212:	60 7e       	andi	r22, 0xE0	; 224
     214:	82 e3       	ldi	r24, 0x32	; 50
     216:	0f d1       	rcall	.+542    	; 0x436 <mcp2515_write>
     218:	f7 01       	movw	r30, r14
     21a:	60 81       	ld	r22, Z
     21c:	71 81       	ldd	r23, Z+1	; 0x01
     21e:	76 95       	lsr	r23
     220:	67 95       	ror	r22
     222:	76 95       	lsr	r23
     224:	67 95       	ror	r22
     226:	76 95       	lsr	r23
     228:	67 95       	ror	r22
     22a:	81 e3       	ldi	r24, 0x31	; 49
     22c:	04 d1       	rcall	.+520    	; 0x436 <mcp2515_write>
     22e:	f7 01       	movw	r30, r14
     230:	62 89       	ldd	r22, Z+18	; 0x12
     232:	85 e3       	ldi	r24, 0x35	; 53
     234:	00 d1       	rcall	.+512    	; 0x436 <mcp2515_write>
     236:	f7 01       	movw	r30, r14
     238:	82 89       	ldd	r24, Z+18	; 0x12
     23a:	89 30       	cpi	r24, 0x09	; 9
     23c:	18 f4       	brcc	.+6      	; 0x244 <can_send_message+0x50>
     23e:	81 11       	cpse	r24, r1
     240:	0a c0       	rjmp	.+20     	; 0x256 <can_send_message+0x62>
     242:	1c c0       	rjmp	.+56     	; 0x27c <can_send_message+0x88>
     244:	87 e0       	ldi	r24, 0x07	; 7
     246:	92 e0       	ldi	r25, 0x02	; 2
     248:	9f 93       	push	r25
     24a:	8f 93       	push	r24
     24c:	0e 94 79 09 	call	0x12f2	; 0x12f2 <printf>
     250:	0f 90       	pop	r0
     252:	0f 90       	pop	r0
     254:	16 c0       	rjmp	.+44     	; 0x282 <can_send_message+0x8e>
     256:	87 01       	movw	r16, r14
     258:	0e 5f       	subi	r16, 0xFE	; 254
     25a:	1f 4f       	sbci	r17, 0xFF	; 255
     25c:	c0 e0       	ldi	r28, 0x00	; 0
     25e:	d0 e0       	ldi	r29, 0x00	; 0
     260:	f8 01       	movw	r30, r16
     262:	60 81       	ld	r22, Z
     264:	0e 5f       	subi	r16, 0xFE	; 254
     266:	1f 4f       	sbci	r17, 0xFF	; 255
     268:	8c 2f       	mov	r24, r28
     26a:	8a 5c       	subi	r24, 0xCA	; 202
     26c:	e4 d0       	rcall	.+456    	; 0x436 <mcp2515_write>
     26e:	21 96       	adiw	r28, 0x01	; 1
     270:	f7 01       	movw	r30, r14
     272:	22 89       	ldd	r18, Z+18	; 0x12
     274:	30 e0       	ldi	r19, 0x00	; 0
     276:	c2 17       	cp	r28, r18
     278:	d3 07       	cpc	r29, r19
     27a:	94 f3       	brlt	.-28     	; 0x260 <can_send_message+0x6c>
     27c:	80 e0       	ldi	r24, 0x00	; 0
     27e:	90 e0       	ldi	r25, 0x00	; 0
     280:	fd d0       	rcall	.+506    	; 0x47c <mcp2515_request_to_send>
     282:	df 91       	pop	r29
     284:	cf 91       	pop	r28
     286:	1f 91       	pop	r17
     288:	0f 91       	pop	r16
     28a:	ff 90       	pop	r15
     28c:	ef 90       	pop	r14
     28e:	08 95       	ret

00000290 <can_receive_message>:
     290:	9f 92       	push	r9
     292:	af 92       	push	r10
     294:	bf 92       	push	r11
     296:	cf 92       	push	r12
     298:	df 92       	push	r13
     29a:	ef 92       	push	r14
     29c:	ff 92       	push	r15
     29e:	0f 93       	push	r16
     2a0:	1f 93       	push	r17
     2a2:	cf 93       	push	r28
     2a4:	df 93       	push	r29
     2a6:	7c 01       	movw	r14, r24
     2a8:	fc 01       	movw	r30, r24
     2aa:	11 82       	std	Z+1, r1	; 0x01
     2ac:	10 82       	st	Z, r1
     2ae:	12 8a       	std	Z+18, r1	; 0x12
     2b0:	13 82       	std	Z+3, r1	; 0x03
     2b2:	12 82       	std	Z+2, r1	; 0x02
     2b4:	8c e2       	ldi	r24, 0x2C	; 44
     2b6:	b4 d0       	rcall	.+360    	; 0x420 <mcp2515_read>
     2b8:	80 ff       	sbrs	r24, 0
     2ba:	4b c0       	rjmp	.+150    	; 0x352 <can_receive_message+0xc2>
     2bc:	81 e6       	ldi	r24, 0x61	; 97
     2be:	b0 d0       	rcall	.+352    	; 0x420 <mcp2515_read>
     2c0:	c8 2f       	mov	r28, r24
     2c2:	d0 e0       	ldi	r29, 0x00	; 0
     2c4:	82 e6       	ldi	r24, 0x62	; 98
     2c6:	ac d0       	rcall	.+344    	; 0x420 <mcp2515_read>
     2c8:	90 e0       	ldi	r25, 0x00	; 0
     2ca:	5e 01       	movw	r10, r28
     2cc:	aa 0c       	add	r10, r10
     2ce:	bb 1c       	adc	r11, r11
     2d0:	aa 0c       	add	r10, r10
     2d2:	bb 1c       	adc	r11, r11
     2d4:	aa 0c       	add	r10, r10
     2d6:	bb 1c       	adc	r11, r11
     2d8:	96 95       	lsr	r25
     2da:	87 95       	ror	r24
     2dc:	92 95       	swap	r25
     2de:	82 95       	swap	r24
     2e0:	8f 70       	andi	r24, 0x0F	; 15
     2e2:	89 27       	eor	r24, r25
     2e4:	9f 70       	andi	r25, 0x0F	; 15
     2e6:	89 27       	eor	r24, r25
     2e8:	a8 2a       	or	r10, r24
     2ea:	b9 2a       	or	r11, r25
     2ec:	85 e6       	ldi	r24, 0x65	; 101
     2ee:	98 d0       	rcall	.+304    	; 0x420 <mcp2515_read>
     2f0:	98 2e       	mov	r9, r24
     2f2:	f8 e0       	ldi	r31, 0x08	; 8
     2f4:	f8 17       	cp	r31, r24
     2f6:	30 f0       	brcs	.+12     	; 0x304 <can_receive_message+0x74>
     2f8:	c8 2e       	mov	r12, r24
     2fa:	d1 2c       	mov	r13, r1
     2fc:	1c 14       	cp	r1, r12
     2fe:	1d 04       	cpc	r1, r13
     300:	5c f0       	brlt	.+22     	; 0x318 <can_receive_message+0x88>
     302:	1c c0       	rjmp	.+56     	; 0x33c <can_receive_message+0xac>
     304:	8f e1       	ldi	r24, 0x1F	; 31
     306:	92 e0       	ldi	r25, 0x02	; 2
     308:	9f 93       	push	r25
     30a:	8f 93       	push	r24
     30c:	f2 d7       	rcall	.+4068   	; 0x12f2 <printf>
     30e:	0f 90       	pop	r0
     310:	0f 90       	pop	r0
     312:	80 e0       	ldi	r24, 0x00	; 0
     314:	90 e0       	ldi	r25, 0x00	; 0
     316:	1f c0       	rjmp	.+62     	; 0x356 <can_receive_message+0xc6>
     318:	87 01       	movw	r16, r14
     31a:	0e 5f       	subi	r16, 0xFE	; 254
     31c:	1f 4f       	sbci	r17, 0xFF	; 255
     31e:	c0 e0       	ldi	r28, 0x00	; 0
     320:	d0 e0       	ldi	r29, 0x00	; 0
     322:	8c 2f       	mov	r24, r28
     324:	8a 59       	subi	r24, 0x9A	; 154
     326:	7c d0       	rcall	.+248    	; 0x420 <mcp2515_read>
     328:	28 2f       	mov	r18, r24
     32a:	30 e0       	ldi	r19, 0x00	; 0
     32c:	f8 01       	movw	r30, r16
     32e:	21 93       	st	Z+, r18
     330:	31 93       	st	Z+, r19
     332:	8f 01       	movw	r16, r30
     334:	21 96       	adiw	r28, 0x01	; 1
     336:	cc 15       	cp	r28, r12
     338:	dd 05       	cpc	r29, r13
     33a:	9c f3       	brlt	.-26     	; 0x322 <can_receive_message+0x92>
     33c:	f7 01       	movw	r30, r14
     33e:	b1 82       	std	Z+1, r11	; 0x01
     340:	a0 82       	st	Z, r10
     342:	92 8a       	std	Z+18, r9	; 0x12
     344:	40 e0       	ldi	r20, 0x00	; 0
     346:	61 e0       	ldi	r22, 0x01	; 1
     348:	8c e2       	ldi	r24, 0x2C	; 44
     34a:	b2 d0       	rcall	.+356    	; 0x4b0 <mcp2515_bit_modify>
     34c:	81 e0       	ldi	r24, 0x01	; 1
     34e:	90 e0       	ldi	r25, 0x00	; 0
     350:	02 c0       	rjmp	.+4      	; 0x356 <can_receive_message+0xc6>
     352:	81 e0       	ldi	r24, 0x01	; 1
     354:	90 e0       	ldi	r25, 0x00	; 0
     356:	df 91       	pop	r29
     358:	cf 91       	pop	r28
     35a:	1f 91       	pop	r17
     35c:	0f 91       	pop	r16
     35e:	ff 90       	pop	r15
     360:	ef 90       	pop	r14
     362:	df 90       	pop	r13
     364:	cf 90       	pop	r12
     366:	bf 90       	pop	r11
     368:	af 90       	pop	r10
     36a:	9f 90       	pop	r9
     36c:	08 95       	ret

0000036e <joy_convertToPercentage>:
volatile int MID_VALUE;



int joy_convertToPercentage(int adcValue, int isFirstMessage){
	if(isFirstMessage == 1){
     36e:	61 30       	cpi	r22, 0x01	; 1
     370:	71 05       	cpc	r23, r1
     372:	21 f4       	brne	.+8      	; 0x37c <joy_convertToPercentage+0xe>
		MID_VALUE = adcValue;
     374:	90 93 b4 02 	sts	0x02B4, r25
     378:	80 93 b3 02 	sts	0x02B3, r24
	}
	
	if(adcValue > MID_VALUE){
     37c:	20 91 b3 02 	lds	r18, 0x02B3
     380:	30 91 b4 02 	lds	r19, 0x02B4
     384:	28 17       	cp	r18, r24
     386:	39 07       	cpc	r19, r25
     388:	cc f4       	brge	.+50     	; 0x3bc <joy_convertToPercentage+0x4e>
		adcValue = 100*(adcValue-MID_VALUE)/(255-MID_VALUE);
     38a:	20 91 b3 02 	lds	r18, 0x02B3
     38e:	30 91 b4 02 	lds	r19, 0x02B4
     392:	ac 01       	movw	r20, r24
     394:	42 1b       	sub	r20, r18
     396:	53 0b       	sbc	r21, r19
     398:	9a 01       	movw	r18, r20
     39a:	44 e6       	ldi	r20, 0x64	; 100
     39c:	42 9f       	mul	r20, r18
     39e:	c0 01       	movw	r24, r0
     3a0:	43 9f       	mul	r20, r19
     3a2:	90 0d       	add	r25, r0
     3a4:	11 24       	eor	r1, r1
     3a6:	20 91 b3 02 	lds	r18, 0x02B3
     3aa:	30 91 b4 02 	lds	r19, 0x02B4
     3ae:	6f ef       	ldi	r22, 0xFF	; 255
     3b0:	70 e0       	ldi	r23, 0x00	; 0
     3b2:	62 1b       	sub	r22, r18
     3b4:	73 0b       	sbc	r23, r19
     3b6:	26 d7       	rcall	.+3660   	; 0x1204 <__divmodhi4>
     3b8:	cb 01       	movw	r24, r22
     3ba:	08 95       	ret
		}else if(adcValue<MID_VALUE){
     3bc:	20 91 b3 02 	lds	r18, 0x02B3
     3c0:	30 91 b4 02 	lds	r19, 0x02B4
     3c4:	82 17       	cp	r24, r18
     3c6:	93 07       	cpc	r25, r19
     3c8:	ac f4       	brge	.+42     	; 0x3f4 <joy_convertToPercentage+0x86>
		adcValue = 100*(adcValue-MID_VALUE)/MID_VALUE;
     3ca:	20 91 b3 02 	lds	r18, 0x02B3
     3ce:	30 91 b4 02 	lds	r19, 0x02B4
     3d2:	ac 01       	movw	r20, r24
     3d4:	42 1b       	sub	r20, r18
     3d6:	53 0b       	sbc	r21, r19
     3d8:	9a 01       	movw	r18, r20
     3da:	44 e6       	ldi	r20, 0x64	; 100
     3dc:	42 9f       	mul	r20, r18
     3de:	c0 01       	movw	r24, r0
     3e0:	43 9f       	mul	r20, r19
     3e2:	90 0d       	add	r25, r0
     3e4:	11 24       	eor	r1, r1
     3e6:	60 91 b3 02 	lds	r22, 0x02B3
     3ea:	70 91 b4 02 	lds	r23, 0x02B4
     3ee:	0a d7       	rcall	.+3604   	; 0x1204 <__divmodhi4>
     3f0:	cb 01       	movw	r24, r22
     3f2:	08 95       	ret
		}else{
		adcValue = 0;
     3f4:	80 e0       	ldi	r24, 0x00	; 0
     3f6:	90 e0       	ldi	r25, 0x00	; 0
	}
	return adcValue;
	
}
     3f8:	08 95       	ret

000003fa <joy_getPercent>:
int joy_getPercent(int raw){
	return (((raw*(1.0)) / 255) * 100);
     3fa:	bc 01       	movw	r22, r24
     3fc:	88 27       	eor	r24, r24
     3fe:	77 fd       	sbrc	r23, 7
     400:	80 95       	com	r24
     402:	98 2f       	mov	r25, r24
     404:	e8 d5       	rcall	.+3024   	; 0xfd6 <__floatsisf>
     406:	20 e0       	ldi	r18, 0x00	; 0
     408:	30 e0       	ldi	r19, 0x00	; 0
     40a:	4f e7       	ldi	r20, 0x7F	; 127
     40c:	53 e4       	ldi	r21, 0x43	; 67
     40e:	48 d5       	rcall	.+2704   	; 0xea0 <__divsf3>
     410:	20 e0       	ldi	r18, 0x00	; 0
     412:	30 e0       	ldi	r19, 0x00	; 0
     414:	48 ec       	ldi	r20, 0xC8	; 200
     416:	52 e4       	ldi	r21, 0x42	; 66
     418:	92 d6       	rcall	.+3364   	; 0x113e <__mulsf3>
     41a:	aa d5       	rcall	.+2900   	; 0xf70 <__fixsfsi>
}
     41c:	cb 01       	movw	r24, r22
     41e:	08 95       	ret

00000420 <mcp2515_read>:
     420:	cf 93       	push	r28
     422:	c8 2f       	mov	r28, r24
     424:	2f 98       	cbi	0x05, 7	; 5
     426:	83 e0       	ldi	r24, 0x03	; 3
     428:	62 d0       	rcall	.+196    	; 0x4ee <spi_MasterTransmit>
     42a:	8c 2f       	mov	r24, r28
     42c:	60 d0       	rcall	.+192    	; 0x4ee <spi_MasterTransmit>
     42e:	64 d0       	rcall	.+200    	; 0x4f8 <spi_MasterRead>
     430:	2f 9a       	sbi	0x05, 7	; 5
     432:	cf 91       	pop	r28
     434:	08 95       	ret

00000436 <mcp2515_write>:
     436:	cf 93       	push	r28
     438:	df 93       	push	r29
     43a:	d8 2f       	mov	r29, r24
     43c:	c6 2f       	mov	r28, r22
     43e:	2f 98       	cbi	0x05, 7	; 5
     440:	82 e0       	ldi	r24, 0x02	; 2
     442:	55 d0       	rcall	.+170    	; 0x4ee <spi_MasterTransmit>
     444:	8d 2f       	mov	r24, r29
     446:	53 d0       	rcall	.+166    	; 0x4ee <spi_MasterTransmit>
     448:	8c 2f       	mov	r24, r28
     44a:	51 d0       	rcall	.+162    	; 0x4ee <spi_MasterTransmit>
     44c:	2f 9a       	sbi	0x05, 7	; 5
     44e:	df 91       	pop	r29
     450:	cf 91       	pop	r28
     452:	08 95       	ret

00000454 <mcp2515_reset>:
     454:	2f 98       	cbi	0x05, 7	; 5
     456:	80 ec       	ldi	r24, 0xC0	; 192
     458:	4a d0       	rcall	.+148    	; 0x4ee <spi_MasterTransmit>
     45a:	2f 9a       	sbi	0x05, 7	; 5
     45c:	08 95       	ret

0000045e <mcp2515_init>:
     45e:	3c d0       	rcall	.+120    	; 0x4d8 <spi_init>
     460:	f9 df       	rcall	.-14     	; 0x454 <mcp2515_reset>
	#else
		//round up by default
		__ticks_dc = (uint32_t)(ceil(fabs(__tmp)));
	#endif

	__builtin_avr_delay_cycles(__ticks_dc);
     462:	83 e0       	ldi	r24, 0x03	; 3
     464:	8a 95       	dec	r24
     466:	f1 f7       	brne	.-4      	; 0x464 <mcp2515_init+0x6>
     468:	00 00       	nop
     46a:	8e e0       	ldi	r24, 0x0E	; 14
     46c:	d9 df       	rcall	.-78     	; 0x420 <mcp2515_read>
     46e:	98 2f       	mov	r25, r24
     470:	90 7e       	andi	r25, 0xE0	; 224
     472:	81 e0       	ldi	r24, 0x01	; 1
     474:	90 38       	cpi	r25, 0x80	; 128
     476:	09 f4       	brne	.+2      	; 0x47a <mcp2515_init+0x1c>
     478:	80 e0       	ldi	r24, 0x00	; 0
     47a:	08 95       	ret

0000047c <mcp2515_request_to_send>:
     47c:	2f 98       	cbi	0x05, 7	; 5
     47e:	00 97       	sbiw	r24, 0x00	; 0
     480:	19 f4       	brne	.+6      	; 0x488 <mcp2515_request_to_send+0xc>
     482:	81 e8       	ldi	r24, 0x81	; 129
     484:	34 d0       	rcall	.+104    	; 0x4ee <spi_MasterTransmit>
     486:	07 c0       	rjmp	.+14     	; 0x496 <mcp2515_request_to_send+0x1a>
     488:	01 97       	sbiw	r24, 0x01	; 1
     48a:	19 f4       	brne	.+6      	; 0x492 <mcp2515_request_to_send+0x16>
     48c:	82 e8       	ldi	r24, 0x82	; 130
     48e:	2f d0       	rcall	.+94     	; 0x4ee <spi_MasterTransmit>
     490:	02 c0       	rjmp	.+4      	; 0x496 <mcp2515_request_to_send+0x1a>
     492:	84 e8       	ldi	r24, 0x84	; 132
     494:	2c d0       	rcall	.+88     	; 0x4ee <spi_MasterTransmit>
     496:	2f 9a       	sbi	0x05, 7	; 5
     498:	08 95       	ret

0000049a <mcp2515_read_status>:
     49a:	cf 93       	push	r28
     49c:	2f 98       	cbi	0x05, 7	; 5
     49e:	80 ea       	ldi	r24, 0xA0	; 160
     4a0:	26 d0       	rcall	.+76     	; 0x4ee <spi_MasterTransmit>
     4a2:	2a d0       	rcall	.+84     	; 0x4f8 <spi_MasterRead>
     4a4:	c8 2f       	mov	r28, r24
     4a6:	28 d0       	rcall	.+80     	; 0x4f8 <spi_MasterRead>
     4a8:	2f 9a       	sbi	0x05, 7	; 5
     4aa:	8c 2f       	mov	r24, r28
     4ac:	cf 91       	pop	r28
     4ae:	08 95       	ret

000004b0 <mcp2515_bit_modify>:
     4b0:	1f 93       	push	r17
     4b2:	cf 93       	push	r28
     4b4:	df 93       	push	r29
     4b6:	18 2f       	mov	r17, r24
     4b8:	d6 2f       	mov	r29, r22
     4ba:	c4 2f       	mov	r28, r20
     4bc:	2f 98       	cbi	0x05, 7	; 5
     4be:	85 e0       	ldi	r24, 0x05	; 5
     4c0:	16 d0       	rcall	.+44     	; 0x4ee <spi_MasterTransmit>
     4c2:	81 2f       	mov	r24, r17
     4c4:	14 d0       	rcall	.+40     	; 0x4ee <spi_MasterTransmit>
     4c6:	8d 2f       	mov	r24, r29
     4c8:	12 d0       	rcall	.+36     	; 0x4ee <spi_MasterTransmit>
     4ca:	8c 2f       	mov	r24, r28
     4cc:	10 d0       	rcall	.+32     	; 0x4ee <spi_MasterTransmit>
     4ce:	2f 9a       	sbi	0x05, 7	; 5
     4d0:	df 91       	pop	r29
     4d2:	cf 91       	pop	r28
     4d4:	1f 91       	pop	r17
     4d6:	08 95       	ret

000004d8 <spi_init>:
     4d8:	84 b1       	in	r24, 0x04	; 4
     4da:	86 60       	ori	r24, 0x06	; 6
     4dc:	84 b9       	out	0x04, r24	; 4
     4de:	23 98       	cbi	0x04, 3	; 4
     4e0:	81 e5       	ldi	r24, 0x51	; 81
     4e2:	8c bd       	out	0x2c, r24	; 44
     4e4:	27 9a       	sbi	0x04, 7	; 4
     4e6:	2f 9a       	sbi	0x05, 7	; 5
     4e8:	20 9a       	sbi	0x04, 0	; 4
     4ea:	28 9a       	sbi	0x05, 0	; 5
     4ec:	08 95       	ret

000004ee <spi_MasterTransmit>:
     4ee:	8e bd       	out	0x2e, r24	; 46
     4f0:	0d b4       	in	r0, 0x2d	; 45
     4f2:	07 fe       	sbrs	r0, 7
     4f4:	fd cf       	rjmp	.-6      	; 0x4f0 <spi_MasterTransmit+0x2>
     4f6:	08 95       	ret

000004f8 <spi_MasterRead>:
     4f8:	80 e0       	ldi	r24, 0x00	; 0
     4fa:	f9 df       	rcall	.-14     	; 0x4ee <spi_MasterTransmit>
     4fc:	8e b5       	in	r24, 0x2e	; 46
     4fe:	08 95       	ret

00000500 <USART_Transmit>:
     500:	e0 ec       	ldi	r30, 0xC0	; 192
     502:	f0 e0       	ldi	r31, 0x00	; 0
     504:	90 81       	ld	r25, Z
     506:	95 ff       	sbrs	r25, 5
     508:	fd cf       	rjmp	.-6      	; 0x504 <USART_Transmit+0x4>
     50a:	80 93 c6 00 	sts	0x00C6, r24
     50e:	08 95       	ret

00000510 <USART_Receive>:
     510:	e0 ec       	ldi	r30, 0xC0	; 192
     512:	f0 e0       	ldi	r31, 0x00	; 0
     514:	80 81       	ld	r24, Z
     516:	88 23       	and	r24, r24
     518:	ec f7       	brge	.-6      	; 0x514 <USART_Receive+0x4>
     51a:	80 91 c6 00 	lds	r24, 0x00C6
     51e:	08 95       	ret

00000520 <USART_Init>:
     520:	90 93 c5 00 	sts	0x00C5, r25
     524:	80 93 c4 00 	sts	0x00C4, r24
     528:	88 e1       	ldi	r24, 0x18	; 24
     52a:	80 93 c1 00 	sts	0x00C1, r24
     52e:	68 e8       	ldi	r22, 0x88	; 136
     530:	72 e0       	ldi	r23, 0x02	; 2
     532:	80 e8       	ldi	r24, 0x80	; 128
     534:	92 e0       	ldi	r25, 0x02	; 2
     536:	93 c6       	rjmp	.+3366   	; 0x125e <fdevopen>
     538:	08 95       	ret

0000053a <dac_send>:
     53a:	cf 93       	push	r28
     53c:	df 93       	push	r29
     53e:	00 d0       	rcall	.+0      	; 0x540 <dac_send+0x6>
     540:	cd b7       	in	r28, 0x3d	; 61
     542:	de b7       	in	r29, 0x3e	; 62
     544:	9e e5       	ldi	r25, 0x5E	; 94
     546:	99 83       	std	Y+1, r25	; 0x01
     548:	1a 82       	std	Y+2, r1	; 0x02
     54a:	8b 83       	std	Y+3, r24	; 0x03
     54c:	63 e0       	ldi	r22, 0x03	; 3
     54e:	70 e0       	ldi	r23, 0x00	; 0
     550:	ce 01       	movw	r24, r28
     552:	01 96       	adiw	r24, 0x01	; 1
     554:	97 d3       	rcall	.+1838   	; 0xc84 <TWI_Start_Transceiver_With_Data>
     556:	0f 90       	pop	r0
     558:	0f 90       	pop	r0
     55a:	0f 90       	pop	r0
     55c:	df 91       	pop	r29
     55e:	cf 91       	pop	r28
     560:	08 95       	ret

00000562 <encoder_init>:
#define clear_bit( reg, bit ) (reg &= ~(1 << bit))
#define test_bit( reg, bit ) (reg & (1 << bit))


void encoder_init(void){
	set_bit(DDRH,PH6); //Setter PH6 (!RST) til output
     562:	e1 e0       	ldi	r30, 0x01	; 1
     564:	f1 e0       	ldi	r31, 0x01	; 1
     566:	80 81       	ld	r24, Z
     568:	80 64       	ori	r24, 0x40	; 64
     56a:	80 83       	st	Z, r24
	set_bit(PORTH,PH6); //!RST til 1
     56c:	a2 e0       	ldi	r26, 0x02	; 2
     56e:	b1 e0       	ldi	r27, 0x01	; 1
     570:	8c 91       	ld	r24, X
     572:	80 64       	ori	r24, 0x40	; 64
     574:	8c 93       	st	X, r24
	
	set_bit(DDRH,PH5); //Setter PH5 (!OE) til output
     576:	80 81       	ld	r24, Z
     578:	80 62       	ori	r24, 0x20	; 32
     57a:	80 83       	st	Z, r24
	clear_bit(PORTH,PH5); //Enable counter on MJ2 (!OE)
     57c:	8c 91       	ld	r24, X
     57e:	8f 7d       	andi	r24, 0xDF	; 223
     580:	8c 93       	st	X, r24
	
	set_bit(DDRH,PH3); //Setter PH3 til output(SEL)
     582:	80 81       	ld	r24, Z
     584:	88 60       	ori	r24, 0x08	; 8
     586:	80 83       	st	Z, r24
	
	//Setter data bits til input
	clear_bit(DDRK, PK0);
     588:	e7 e0       	ldi	r30, 0x07	; 7
     58a:	f1 e0       	ldi	r31, 0x01	; 1
     58c:	80 81       	ld	r24, Z
     58e:	8e 7f       	andi	r24, 0xFE	; 254
     590:	80 83       	st	Z, r24
	clear_bit(DDRK, PK1);
     592:	80 81       	ld	r24, Z
     594:	8d 7f       	andi	r24, 0xFD	; 253
     596:	80 83       	st	Z, r24
	clear_bit(DDRK, PK2);
     598:	80 81       	ld	r24, Z
     59a:	8b 7f       	andi	r24, 0xFB	; 251
     59c:	80 83       	st	Z, r24
	clear_bit(DDRK, PK3);
     59e:	80 81       	ld	r24, Z
     5a0:	87 7f       	andi	r24, 0xF7	; 247
     5a2:	80 83       	st	Z, r24
	clear_bit(DDRK, PK4);
     5a4:	80 81       	ld	r24, Z
     5a6:	8f 7e       	andi	r24, 0xEF	; 239
     5a8:	80 83       	st	Z, r24
	clear_bit(DDRK, PK5);
     5aa:	80 81       	ld	r24, Z
     5ac:	8f 7d       	andi	r24, 0xDF	; 223
     5ae:	80 83       	st	Z, r24
	clear_bit(DDRK, PK6);
     5b0:	80 81       	ld	r24, Z
     5b2:	8f 7b       	andi	r24, 0xBF	; 191
     5b4:	80 83       	st	Z, r24
	clear_bit(DDRK, PK7);
     5b6:	80 81       	ld	r24, Z
     5b8:	8f 77       	andi	r24, 0x7F	; 127
     5ba:	80 83       	st	Z, r24
     5bc:	08 95       	ret

000005be <encoder_read>:
	int16_t LSB = 0;
	int16_t encoderValue = 0;
	
	//clear_bit(PORTH,PH5); //Enable counter on MJ2 (!OE) ---- Set !OE low to enable output of encoder
	
	clear_bit(PORTH,PH3); //Set SEL low to get high byte
     5be:	e2 e0       	ldi	r30, 0x02	; 2
     5c0:	f1 e0       	ldi	r31, 0x01	; 1
     5c2:	80 81       	ld	r24, Z
     5c4:	87 7f       	andi	r24, 0xF7	; 247
     5c6:	80 83       	st	Z, r24
     5c8:	2a e6       	ldi	r18, 0x6A	; 106
     5ca:	2a 95       	dec	r18
     5cc:	f1 f7       	brne	.-4      	; 0x5ca <encoder_read+0xc>
     5ce:	00 c0       	rjmp	.+0      	; 0x5d0 <encoder_read+0x12>
	
	_delay_us(20); //Wait 20 microseconds
	
	encoderValue = (((int16_t)PINK) << 8); //Read 8MSB from encoder
     5d0:	80 91 06 01 	lds	r24, 0x0106
     5d4:	90 e0       	ldi	r25, 0x00	; 0
     5d6:	98 2f       	mov	r25, r24
     5d8:	88 27       	eor	r24, r24

	set_bit(PORTH,PH3); //Set SEL high to get low byte
     5da:	20 81       	ld	r18, Z
     5dc:	28 60       	ori	r18, 0x08	; 8
     5de:	20 83       	st	Z, r18
     5e0:	2a e6       	ldi	r18, 0x6A	; 106
     5e2:	2a 95       	dec	r18
     5e4:	f1 f7       	brne	.-4      	; 0x5e2 <encoder_read+0x24>
     5e6:	00 c0       	rjmp	.+0      	; 0x5e8 <encoder_read+0x2a>
	
	_delay_us(20); //Wait about 20 microseconds
	
	encoderValue |= PINK; //Read 8LSB from encoder
     5e8:	20 91 06 01 	lds	r18, 0x0106
	//set_bit(PORTH,PH5); //Disable output of encoder
	
	//encoderValue =(int16_t) (MSB | LSB);
	
	return encoderValue;
     5ec:	82 2b       	or	r24, r18
     5ee:	08 95       	ret

000005f0 <game_isGameOver>:
#include "internalADC.h"



int game_isGameOver(void){
	uint16_t adcValue = internalADC_getResult();
     5f0:	09 d0       	rcall	.+18     	; 0x604 <internalADC_getResult>
	//printf("ADC RESULT IR: %i \n", adcValue);
	if(adcValue<= 300){ //Endre denne for IR sensorsensitivity
     5f2:	21 e0       	ldi	r18, 0x01	; 1
     5f4:	30 e0       	ldi	r19, 0x00	; 0
     5f6:	8d 32       	cpi	r24, 0x2D	; 45
     5f8:	91 40       	sbci	r25, 0x01	; 1
     5fa:	10 f0       	brcs	.+4      	; 0x600 <game_isGameOver+0x10>
     5fc:	20 e0       	ldi	r18, 0x00	; 0
     5fe:	30 e0       	ldi	r19, 0x00	; 0
		return 1;
	}
	return 0;
     600:	c9 01       	movw	r24, r18
     602:	08 95       	ret

00000604 <internalADC_getResult>:
     604:	20 91 78 00 	lds	r18, 0x0078
     608:	80 91 79 00 	lds	r24, 0x0079
     60c:	90 e0       	ldi	r25, 0x00	; 0
     60e:	98 2f       	mov	r25, r24
     610:	88 27       	eor	r24, r24
     612:	82 0f       	add	r24, r18
     614:	91 1d       	adc	r25, r1
     616:	08 95       	ret

00000618 <internalADC_startConversion>:
     618:	ea e7       	ldi	r30, 0x7A	; 122
     61a:	f0 e0       	ldi	r31, 0x00	; 0
     61c:	80 81       	ld	r24, Z
     61e:	80 64       	ori	r24, 0x40	; 64
     620:	80 83       	st	Z, r24
     622:	08 95       	ret

00000624 <internalADC_init>:
     624:	80 98       	cbi	0x10, 0	; 16
     626:	aa e7       	ldi	r26, 0x7A	; 122
     628:	b0 e0       	ldi	r27, 0x00	; 0
     62a:	8c 91       	ld	r24, X
     62c:	80 68       	ori	r24, 0x80	; 128
     62e:	8c 93       	st	X, r24
     630:	ec e7       	ldi	r30, 0x7C	; 124
     632:	f0 e0       	ldi	r31, 0x00	; 0
     634:	80 81       	ld	r24, Z
     636:	8f 7e       	andi	r24, 0xEF	; 239
     638:	80 83       	st	Z, r24
     63a:	80 81       	ld	r24, Z
     63c:	87 7f       	andi	r24, 0xF7	; 247
     63e:	80 83       	st	Z, r24
     640:	80 81       	ld	r24, Z
     642:	8b 7f       	andi	r24, 0xFB	; 251
     644:	80 83       	st	Z, r24
     646:	80 81       	ld	r24, Z
     648:	8d 7f       	andi	r24, 0xFD	; 253
     64a:	80 83       	st	Z, r24
     64c:	80 81       	ld	r24, Z
     64e:	8e 7f       	andi	r24, 0xFE	; 254
     650:	80 83       	st	Z, r24
     652:	80 81       	ld	r24, Z
     654:	8f 77       	andi	r24, 0x7F	; 127
     656:	80 83       	st	Z, r24
     658:	80 81       	ld	r24, Z
     65a:	80 64       	ori	r24, 0x40	; 64
     65c:	80 83       	st	Z, r24
     65e:	8c 91       	ld	r24, X
     660:	8f 7d       	andi	r24, 0xDF	; 223
     662:	8c 93       	st	X, r24
     664:	8c 91       	ld	r24, X
     666:	88 60       	ori	r24, 0x08	; 8
     668:	8c 93       	st	X, r24
     66a:	8c 91       	ld	r24, X
     66c:	8e 7f       	andi	r24, 0xFE	; 254
     66e:	8c 93       	st	X, r24
     670:	8c 91       	ld	r24, X
     672:	82 60       	ori	r24, 0x02	; 2
     674:	8c 93       	st	X, r24
     676:	8c 91       	ld	r24, X
     678:	8b 7f       	andi	r24, 0xFB	; 251
     67a:	8c 93       	st	X, r24
     67c:	cd cf       	rjmp	.-102    	; 0x618 <internalADC_startConversion>
     67e:	08 95       	ret

00000680 <motor_init>:
	motor_dirLeft();
	_delay_ms(3000);
	CALIBRATE_MIN = encoder_read();
	motor_setVoltage(0);
	
	printf("Max: %i  Min: %i \n\n\n", CALIBRATE_MAX, CALIBRATE_MIN);
     680:	a1 e0       	ldi	r26, 0x01	; 1
     682:	b1 e0       	ldi	r27, 0x01	; 1
     684:	8c 91       	ld	r24, X
     686:	80 61       	ori	r24, 0x10	; 16
     688:	8c 93       	st	X, r24
     68a:	e2 e0       	ldi	r30, 0x02	; 2
     68c:	f1 e0       	ldi	r31, 0x01	; 1
     68e:	80 81       	ld	r24, Z
     690:	80 61       	ori	r24, 0x10	; 16
     692:	80 83       	st	Z, r24
     694:	8c 91       	ld	r24, X
     696:	82 60       	ori	r24, 0x02	; 2
     698:	8c 93       	st	X, r24
     69a:	80 81       	ld	r24, Z
     69c:	8d 7f       	andi	r24, 0xFD	; 253
     69e:	80 83       	st	Z, r24
     6a0:	80 e0       	ldi	r24, 0x00	; 0
     6a2:	4b cf       	rjmp	.-362    	; 0x53a <dac_send>
     6a4:	08 95       	ret

000006a6 <motor_dirLeft>:
     6a6:	e2 e0       	ldi	r30, 0x02	; 2
     6a8:	f1 e0       	ldi	r31, 0x01	; 1
     6aa:	80 81       	ld	r24, Z
     6ac:	8d 7f       	andi	r24, 0xFD	; 253
     6ae:	80 83       	st	Z, r24
     6b0:	08 95       	ret

000006b2 <motor_dirRight>:
     6b2:	e2 e0       	ldi	r30, 0x02	; 2
     6b4:	f1 e0       	ldi	r31, 0x01	; 1
     6b6:	80 81       	ld	r24, Z
     6b8:	82 60       	ori	r24, 0x02	; 2
     6ba:	80 83       	st	Z, r24
     6bc:	08 95       	ret

000006be <motor_PIDspeed>:
}


void motor_PIDspeed(int velRef, int16_t encoderValue){
     6be:	4f 92       	push	r4
     6c0:	5f 92       	push	r5
     6c2:	6f 92       	push	r6
     6c4:	7f 92       	push	r7
     6c6:	8f 92       	push	r8
     6c8:	9f 92       	push	r9
     6ca:	af 92       	push	r10
     6cc:	bf 92       	push	r11
     6ce:	cf 92       	push	r12
     6d0:	df 92       	push	r13
     6d2:	ef 92       	push	r14
     6d4:	ff 92       	push	r15
     6d6:	cf 93       	push	r28
     6d8:	df 93       	push	r29
     6da:	00 d0       	rcall	.+0      	; 0x6dc <motor_PIDspeed+0x1e>
     6dc:	1f 92       	push	r1
     6de:	cd b7       	in	r28, 0x3d	; 61
     6e0:	de b7       	in	r29, 0x3e	; 62
     6e2:	6c 01       	movw	r12, r24
     6e4:	7b 01       	movw	r14, r22
	if(FIRST_ENCODER_VALUE_READ == 0){ //For å ikke få feil første gang vi går inn (da er PREV_ENCODERVALUE satt default til 0. Dette blir da feil i utregningen)
     6e6:	80 91 92 02 	lds	r24, 0x0292
     6ea:	90 91 93 02 	lds	r25, 0x0293
     6ee:	89 2b       	or	r24, r25
     6f0:	39 f4       	brne	.+14     	; 0x700 <motor_PIDspeed+0x42>
		FIRST_ENCODER_VALUE_READ = 1;
     6f2:	81 e0       	ldi	r24, 0x01	; 1
     6f4:	90 e0       	ldi	r25, 0x00	; 0
     6f6:	90 93 93 02 	sts	0x0293, r25
     6fa:	80 93 92 02 	sts	0x0292, r24
		return;
     6fe:	fe c0       	rjmp	.+508    	; 0x8fc <motor_PIDspeed+0x23e>
	}
	
	
	int16_t dx = encoderValue - PREV_ENCODERVALUE;
     700:	80 91 94 02 	lds	r24, 0x0294
     704:	90 91 95 02 	lds	r25, 0x0295
     708:	68 1b       	sub	r22, r24
     70a:	79 0b       	sbc	r23, r25
	double dt = 0.05; //Timer interrupt seconds (every measurment is done with 0.05s interval
	double velocity = -((double)dx)/dt; //Positiv defineres til høyre
     70c:	88 27       	eor	r24, r24
     70e:	77 fd       	sbrc	r23, 7
     710:	80 95       	com	r24
     712:	98 2f       	mov	r25, r24
     714:	60 d4       	rcall	.+2240   	; 0xfd6 <__floatsisf>
     716:	90 58       	subi	r25, 0x80	; 128
     718:	2d ec       	ldi	r18, 0xCD	; 205
     71a:	3c ec       	ldi	r19, 0xCC	; 204
     71c:	4c e4       	ldi	r20, 0x4C	; 76
     71e:	5d e3       	ldi	r21, 0x3D	; 61
     720:	bf d3       	rcall	.+1918   	; 0xea0 <__divsf3>
     722:	4b 01       	movw	r8, r22
     724:	5c 01       	movw	r10, r24
	velocity = velocity/1000; //For å ikke få altfor høye verdier
	PREV_ENCODERVALUE = encoderValue;
     726:	f0 92 95 02 	sts	0x0295, r15
     72a:	e0 92 94 02 	sts	0x0294, r14
	double Ki = 0.5;  //0.5;
	double T = 0.05;  //0.05;
	double Kd = 0.05; //0.07;
	
	velRef = velRef;
	double error = (velRef - velocity); 
     72e:	b6 01       	movw	r22, r12
     730:	88 27       	eor	r24, r24
     732:	77 fd       	sbrc	r23, 7
     734:	80 95       	com	r24
     736:	98 2f       	mov	r25, r24
     738:	4e d4       	rcall	.+2204   	; 0xfd6 <__floatsisf>
     73a:	6b 01       	movw	r12, r22
     73c:	7c 01       	movw	r14, r24
	
	
	int16_t dx = encoderValue - PREV_ENCODERVALUE;
	double dt = 0.05; //Timer interrupt seconds (every measurment is done with 0.05s interval
	double velocity = -((double)dx)/dt; //Positiv defineres til høyre
	velocity = velocity/1000; //For å ikke få altfor høye verdier
     73e:	20 e0       	ldi	r18, 0x00	; 0
     740:	30 e0       	ldi	r19, 0x00	; 0
     742:	4a e7       	ldi	r20, 0x7A	; 122
     744:	54 e4       	ldi	r21, 0x44	; 68
     746:	c5 01       	movw	r24, r10
     748:	b4 01       	movw	r22, r8
     74a:	aa d3       	rcall	.+1876   	; 0xea0 <__divsf3>
     74c:	9b 01       	movw	r18, r22
     74e:	ac 01       	movw	r20, r24
	double Ki = 0.5;  //0.5;
	double T = 0.05;  //0.05;
	double Kd = 0.05; //0.07;
	
	velRef = velRef;
	double error = (velRef - velocity); 
     750:	c7 01       	movw	r24, r14
     752:	b6 01       	movw	r22, r12
     754:	3c d3       	rcall	.+1656   	; 0xdce <__subsf3>
     756:	6b 01       	movw	r12, r22
     758:	7c 01       	movw	r14, r24
	
	double AbsError = abs(error); //Siden vi kun er interessert i feil, vi tar for oss retning i if(error > 10) .. else if (error <10)...
     75a:	0a d4       	rcall	.+2068   	; 0xf70 <__fixsfsi>
     75c:	9b 01       	movw	r18, r22
     75e:	77 23       	and	r23, r23
     760:	24 f4       	brge	.+8      	; 0x76a <motor_PIDspeed+0xac>
     762:	22 27       	eor	r18, r18
     764:	33 27       	eor	r19, r19
     766:	26 1b       	sub	r18, r22
     768:	37 0b       	sbc	r19, r23
     76a:	b9 01       	movw	r22, r18
     76c:	88 27       	eor	r24, r24
     76e:	77 fd       	sbrc	r23, 7
     770:	80 95       	com	r24
     772:	98 2f       	mov	r25, r24
     774:	30 d4       	rcall	.+2144   	; 0xfd6 <__floatsisf>
     776:	4b 01       	movw	r8, r22
     778:	5c 01       	movw	r10, r24
	if(error > 10){
     77a:	20 e0       	ldi	r18, 0x00	; 0
     77c:	30 e0       	ldi	r19, 0x00	; 0
     77e:	40 e2       	ldi	r20, 0x20	; 32
     780:	51 e4       	ldi	r21, 0x41	; 65
     782:	c7 01       	movw	r24, r14
     784:	b6 01       	movw	r22, r12
     786:	d7 d4       	rcall	.+2478   	; 0x1136 <__gesf2>
     788:	18 16       	cp	r1, r24
     78a:	0c f0       	brlt	.+2      	; 0x78e <motor_PIDspeed+0xd0>
     78c:	4d c0       	rjmp	.+154    	; 0x828 <motor_PIDspeed+0x16a>
		SUM_ERROR = SUM_ERROR + error;
     78e:	60 91 96 02 	lds	r22, 0x0296
     792:	70 91 97 02 	lds	r23, 0x0297
     796:	80 91 98 02 	lds	r24, 0x0298
     79a:	90 91 99 02 	lds	r25, 0x0299
     79e:	a7 01       	movw	r20, r14
     7a0:	96 01       	movw	r18, r12
     7a2:	16 d3       	rcall	.+1580   	; 0xdd0 <__addsf3>
     7a4:	60 93 96 02 	sts	0x0296, r22
     7a8:	70 93 97 02 	sts	0x0297, r23
     7ac:	80 93 98 02 	sts	0x0298, r24
     7b0:	90 93 99 02 	sts	0x0299, r25
	
	
	
	
	//-------Diskret PD regulator
	int u = Kp*AbsError+ T*Ki*SUM_ERROR  + Kd/T*(error-PREV_ERROR); //
     7b4:	40 90 96 02 	lds	r4, 0x0296
     7b8:	50 90 97 02 	lds	r5, 0x0297
     7bc:	60 90 98 02 	lds	r6, 0x0298
     7c0:	70 90 99 02 	lds	r7, 0x0299
     7c4:	80 91 9a 02 	lds	r24, 0x029A
     7c8:	90 91 9b 02 	lds	r25, 0x029B
     7cc:	a0 91 9c 02 	lds	r26, 0x029C
     7d0:	b0 91 9d 02 	lds	r27, 0x029D
     7d4:	89 83       	std	Y+1, r24	; 0x01
     7d6:	9a 83       	std	Y+2, r25	; 0x02
     7d8:	ab 83       	std	Y+3, r26	; 0x03
     7da:	bc 83       	std	Y+4, r27	; 0x04
     7dc:	2a e9       	ldi	r18, 0x9A	; 154
     7de:	39 e9       	ldi	r19, 0x99	; 153
     7e0:	49 e9       	ldi	r20, 0x99	; 153
     7e2:	5f e3       	ldi	r21, 0x3F	; 63
     7e4:	c5 01       	movw	r24, r10
     7e6:	b4 01       	movw	r22, r8
     7e8:	aa d4       	rcall	.+2388   	; 0x113e <__mulsf3>
     7ea:	4b 01       	movw	r8, r22
     7ec:	5c 01       	movw	r10, r24
     7ee:	2d ec       	ldi	r18, 0xCD	; 205
     7f0:	3c ec       	ldi	r19, 0xCC	; 204
     7f2:	4c ec       	ldi	r20, 0xCC	; 204
     7f4:	5c e3       	ldi	r21, 0x3C	; 60
     7f6:	c3 01       	movw	r24, r6
     7f8:	b2 01       	movw	r22, r4
     7fa:	a1 d4       	rcall	.+2370   	; 0x113e <__mulsf3>
     7fc:	9b 01       	movw	r18, r22
     7fe:	ac 01       	movw	r20, r24
     800:	c5 01       	movw	r24, r10
     802:	b4 01       	movw	r22, r8
     804:	e5 d2       	rcall	.+1482   	; 0xdd0 <__addsf3>
     806:	4b 01       	movw	r8, r22
     808:	5c 01       	movw	r10, r24
     80a:	29 81       	ldd	r18, Y+1	; 0x01
     80c:	3a 81       	ldd	r19, Y+2	; 0x02
     80e:	4b 81       	ldd	r20, Y+3	; 0x03
     810:	5c 81       	ldd	r21, Y+4	; 0x04
     812:	c7 01       	movw	r24, r14
     814:	b6 01       	movw	r22, r12
     816:	db d2       	rcall	.+1462   	; 0xdce <__subsf3>
     818:	9b 01       	movw	r18, r22
     81a:	ac 01       	movw	r20, r24
     81c:	c5 01       	movw	r24, r10
     81e:	b4 01       	movw	r22, r8
     820:	d7 d2       	rcall	.+1454   	; 0xdd0 <__addsf3>
     822:	a6 d3       	rcall	.+1868   	; 0xf70 <__fixsfsi>
     824:	5b 01       	movw	r10, r22
     826:	4a c0       	rjmp	.+148    	; 0x8bc <motor_PIDspeed+0x1fe>
	
	double AbsError = abs(error); //Siden vi kun er interessert i feil, vi tar for oss retning i if(error > 10) .. else if (error <10)...
	if(error > 10){
		SUM_ERROR = SUM_ERROR + error;
	}else{
		SUM_ERROR = 0;
     828:	10 92 96 02 	sts	0x0296, r1
     82c:	10 92 97 02 	sts	0x0297, r1
     830:	10 92 98 02 	sts	0x0298, r1
     834:	10 92 99 02 	sts	0x0299, r1
	
	
	
	
	//-------Diskret PD regulator
	int u = Kp*AbsError+ T*Ki*SUM_ERROR  + Kd/T*(error-PREV_ERROR); //
     838:	40 90 96 02 	lds	r4, 0x0296
     83c:	50 90 97 02 	lds	r5, 0x0297
     840:	60 90 98 02 	lds	r6, 0x0298
     844:	70 90 99 02 	lds	r7, 0x0299
     848:	80 91 9a 02 	lds	r24, 0x029A
     84c:	90 91 9b 02 	lds	r25, 0x029B
     850:	a0 91 9c 02 	lds	r26, 0x029C
     854:	b0 91 9d 02 	lds	r27, 0x029D
     858:	89 83       	std	Y+1, r24	; 0x01
     85a:	9a 83       	std	Y+2, r25	; 0x02
     85c:	ab 83       	std	Y+3, r26	; 0x03
     85e:	bc 83       	std	Y+4, r27	; 0x04
     860:	2a e9       	ldi	r18, 0x9A	; 154
     862:	39 e9       	ldi	r19, 0x99	; 153
     864:	49 e9       	ldi	r20, 0x99	; 153
     866:	5f e3       	ldi	r21, 0x3F	; 63
     868:	c5 01       	movw	r24, r10
     86a:	b4 01       	movw	r22, r8
     86c:	68 d4       	rcall	.+2256   	; 0x113e <__mulsf3>
     86e:	4b 01       	movw	r8, r22
     870:	5c 01       	movw	r10, r24
     872:	2d ec       	ldi	r18, 0xCD	; 205
     874:	3c ec       	ldi	r19, 0xCC	; 204
     876:	4c ec       	ldi	r20, 0xCC	; 204
     878:	5c e3       	ldi	r21, 0x3C	; 60
     87a:	c3 01       	movw	r24, r6
     87c:	b2 01       	movw	r22, r4
     87e:	5f d4       	rcall	.+2238   	; 0x113e <__mulsf3>
     880:	9b 01       	movw	r18, r22
     882:	ac 01       	movw	r20, r24
     884:	c5 01       	movw	r24, r10
     886:	b4 01       	movw	r22, r8
     888:	a3 d2       	rcall	.+1350   	; 0xdd0 <__addsf3>
     88a:	4b 01       	movw	r8, r22
     88c:	5c 01       	movw	r10, r24
     88e:	29 81       	ldd	r18, Y+1	; 0x01
     890:	3a 81       	ldd	r19, Y+2	; 0x02
     892:	4b 81       	ldd	r20, Y+3	; 0x03
     894:	5c 81       	ldd	r21, Y+4	; 0x04
     896:	c7 01       	movw	r24, r14
     898:	b6 01       	movw	r22, r12
     89a:	99 d2       	rcall	.+1330   	; 0xdce <__subsf3>
     89c:	9b 01       	movw	r18, r22
     89e:	ac 01       	movw	r20, r24
     8a0:	c5 01       	movw	r24, r10
     8a2:	b4 01       	movw	r22, r8
     8a4:	95 d2       	rcall	.+1322   	; 0xdd0 <__addsf3>
     8a6:	64 d3       	rcall	.+1736   	; 0xf70 <__fixsfsi>
     8a8:	5b 01       	movw	r10, r22
	
	//printf("Velocity: %i error: %i    u:  %i \n", (int)velocity,(int)error, u);
	//Velg retning basert på hvilken vei joystick peker
	if(error > 10){
     8aa:	20 e0       	ldi	r18, 0x00	; 0
     8ac:	30 e0       	ldi	r19, 0x00	; 0
     8ae:	40 e2       	ldi	r20, 0x20	; 32
     8b0:	51 e4       	ldi	r21, 0x41	; 65
     8b2:	c7 01       	movw	r24, r14
     8b4:	b6 01       	movw	r22, r12
     8b6:	3f d4       	rcall	.+2174   	; 0x1136 <__gesf2>
     8b8:	18 16       	cp	r1, r24
     8ba:	14 f4       	brge	.+4      	; 0x8c0 <motor_PIDspeed+0x202>
		motor_dirRight();
     8bc:	fa de       	rcall	.-524    	; 0x6b2 <motor_dirRight>
     8be:	0a c0       	rjmp	.+20     	; 0x8d4 <motor_PIDspeed+0x216>
		}else if(error < -10){
     8c0:	20 e0       	ldi	r18, 0x00	; 0
     8c2:	30 e0       	ldi	r19, 0x00	; 0
     8c4:	40 e2       	ldi	r20, 0x20	; 32
     8c6:	51 ec       	ldi	r21, 0xC1	; 193
     8c8:	c7 01       	movw	r24, r14
     8ca:	b6 01       	movw	r22, r12
     8cc:	e5 d2       	rcall	.+1482   	; 0xe98 <__cmpsf2>
     8ce:	88 23       	and	r24, r24
     8d0:	34 f4       	brge	.+12     	; 0x8de <motor_PIDspeed+0x220>
		motor_dirLeft();
     8d2:	e9 de       	rcall	.-558    	; 0x6a6 <motor_dirLeft>
	}else{
		u = 0;
	}
	if(u<250 && u >= 0){
     8d4:	9a ef       	ldi	r25, 0xFA	; 250
     8d6:	a9 16       	cp	r10, r25
     8d8:	b1 04       	cpc	r11, r1
     8da:	30 f4       	brcc	.+12     	; 0x8e8 <motor_PIDspeed+0x22a>
     8dc:	02 c0       	rjmp	.+4      	; 0x8e2 <motor_PIDspeed+0x224>
	if(error > 10){
		motor_dirRight();
		}else if(error < -10){
		motor_dirLeft();
	}else{
		u = 0;
     8de:	a1 2c       	mov	r10, r1
     8e0:	b1 2c       	mov	r11, r1
	
	motor_setVoltage(0); //For å ikke starte motor unødvendig
}

void motor_setVoltage(uint8_t myValue){
	dac_send(myValue); //Må fikse logikk på joystick evt slider
     8e2:	8a 2d       	mov	r24, r10
     8e4:	2a de       	rcall	.-940    	; 0x53a <dac_send>
     8e6:	02 c0       	rjmp	.+4      	; 0x8ec <motor_PIDspeed+0x22e>
     8e8:	86 e9       	ldi	r24, 0x96	; 150
     8ea:	27 de       	rcall	.-946    	; 0x53a <dac_send>
		motor_setVoltage(u); //input to motor
		}else{
		motor_setVoltage(150); //Max
	}
	
	PREV_ERROR = error;
     8ec:	c0 92 9a 02 	sts	0x029A, r12
     8f0:	d0 92 9b 02 	sts	0x029B, r13
     8f4:	e0 92 9c 02 	sts	0x029C, r14
     8f8:	f0 92 9d 02 	sts	0x029D, r15
     8fc:	0f 90       	pop	r0
     8fe:	0f 90       	pop	r0
     900:	0f 90       	pop	r0
     902:	0f 90       	pop	r0
     904:	df 91       	pop	r29
     906:	cf 91       	pop	r28
     908:	ff 90       	pop	r15
     90a:	ef 90       	pop	r14
     90c:	df 90       	pop	r13
     90e:	cf 90       	pop	r12
     910:	bf 90       	pop	r11
     912:	af 90       	pop	r10
     914:	9f 90       	pop	r9
     916:	8f 90       	pop	r8
     918:	7f 90       	pop	r7
     91a:	6f 90       	pop	r6
     91c:	5f 90       	pop	r5
     91e:	4f 90       	pop	r4
     920:	08 95       	ret

00000922 <main>:


volatile double KP;

int main(void)
{
     922:	cf 93       	push	r28
     924:	df 93       	push	r29
     926:	cd b7       	in	r28, 0x3d	; 61
     928:	de b7       	in	r29, 0x3e	; 62
     92a:	6b 97       	sbiw	r28, 0x1b	; 27
     92c:	0f b6       	in	r0, 0x3f	; 63
     92e:	f8 94       	cli
     930:	de bf       	out	0x3e, r29	; 62
     932:	0f be       	out	0x3f, r0	; 63
     934:	cd bf       	out	0x3d, r28	; 61
	cli();
     936:	f8 94       	cli
	USART_Init(MYUBRR);
     938:	87 e6       	ldi	r24, 0x67	; 103
     93a:	90 e0       	ldi	r25, 0x00	; 0
     93c:	f1 dd       	rcall	.-1054   	; 0x520 <USART_Init>
	can_init();
     93e:	44 dc       	rcall	.-1912   	; 0x1c8 <can_init>
	timer_init();
     940:	56 d1       	rcall	.+684    	; 0xbee <timer_init>
	internalADC_init();
     942:	70 de       	rcall	.-800    	; 0x624 <internalADC_init>
	TWI_Master_Initialise();
     944:	95 d1       	rcall	.+810    	; 0xc70 <TWI_Master_Initialise>
	motor_init();
     946:	9c de       	rcall	.-712    	; 0x680 <motor_init>
	encoder_init();
     948:	0c de       	rcall	.-1000   	; 0x562 <encoder_init>
	solenoid_init();
     94a:	25 d1       	rcall	.+586    	; 0xb96 <solenoid_init>
	sei();
	sleep_cpu();*/
	//sleep_disable();
	
	
	sei(); //Global interrupt enable
     94c:	78 94       	sei
			uint8_t gameOver = game_isGameOver();
			//printf("Game Over = %i \n", gameOver);
			
			//sender can melding som har info om spillet er over
			can_msg gameInfo;
			gameInfo.id = 5;
     94e:	05 e0       	ldi	r16, 0x05	; 5
     950:	10 e0       	ldi	r17, 0x00	; 0
			gameInfo.length = 1; //skal kun sende over én verdi, som er verdien gameOver
     952:	55 24       	eor	r5, r5
     954:	53 94       	inc	r5
				
				/*------------- VALUES TO MOTOR ------------------------*/
				CAN_CALIBRATION_NEEDED +=1;
				REF_TO_MOTOR_PID = joy_convertToPercentage(mottatt_data_char0,CAN_CALIBRATION_NEEDED); //for x-akse på joystick
				ENCODERVALUE = encoder_read(); //Leser verdi på encoderen
				CAN_FIRST_MESSAGE_RECEIVED = 1;
     956:	88 24       	eor	r8, r8
     958:	83 94       	inc	r8
     95a:	91 2c       	mov	r9, r1
				
				/*----------------TO SERVO -------------------*/
				servo_positionUpdate(255-mottatt_data_char6);
     95c:	aa 24       	eor	r10, r10
     95e:	aa 94       	dec	r10
     960:	b1 2c       	mov	r11, r1
				/*---------------SOLENOID-----------------*/
				if(mottatt_data_char4 == 1){
					
					solenoid_shoot();
				}
				printf("ID: %i  LENGTH: %i   ALL DATA  %i    %i   %i    %i    %i    %i    %i   \n", mottatt.id , mottatt.length, mottatt_data_char0, mottatt_data_char1, mottatt_data_char2, mottatt_data_char3, mottatt_data_char4, mottatt_data_char5, mottatt_data_char6);
     962:	0f 2e       	mov	r0, r31
     964:	f9 e4       	ldi	r31, 0x49	; 73
     966:	6f 2e       	mov	r6, r31
     968:	f2 e0       	ldi	r31, 0x02	; 2
     96a:	7f 2e       	mov	r7, r31
     96c:	f0 2d       	mov	r31, r0
		/*//Interrupt
		if(//TIMERINTRERRUPT (MÅ OGSÅ VEKKE FRA SLEEP)
		
		//Sleep
		*/
		if(ADC_CONVERSION_COMPLETE_INTERRUPT){
     96e:	80 91 a6 02 	lds	r24, 0x02A6
     972:	90 91 a7 02 	lds	r25, 0x02A7
     976:	89 2b       	or	r24, r25
     978:	79 f0       	breq	.+30     	; 0x998 <main+0x76>
			
			uint8_t gameOver = game_isGameOver();
     97a:	3a de       	rcall	.-908    	; 0x5f0 <game_isGameOver>
			//printf("Game Over = %i \n", gameOver);
			
			//sender can melding som har info om spillet er over
			can_msg gameInfo;
			gameInfo.id = 5;
     97c:	1a 83       	std	Y+2, r17	; 0x02
     97e:	09 83       	std	Y+1, r16	; 0x01
			gameInfo.length = 1; //skal kun sende over én verdi, som er verdien gameOver
     980:	5b 8a       	std	Y+19, r5	; 0x13
			gameInfo.data[0] = gameOver;
     982:	99 27       	eor	r25, r25
     984:	9c 83       	std	Y+4, r25	; 0x04
     986:	8b 83       	std	Y+3, r24	; 0x03
			can_send_message(&gameInfo);
     988:	ce 01       	movw	r24, r28
     98a:	01 96       	adiw	r24, 0x01	; 1
     98c:	33 dc       	rcall	.-1946   	; 0x1f4 <can_send_message>

			
			internalADC_startConversion(); //Starte ny interrupt
     98e:	44 de       	rcall	.-888    	; 0x618 <internalADC_startConversion>
			
			ADC_CONVERSION_COMPLETE_INTERRUPT = 0;
     990:	10 92 a7 02 	sts	0x02A7, r1
     994:	10 92 a6 02 	sts	0x02A6, r1
		//	can_send_message(&melding);
		can_msg mottatt;
		
		
		//sjekker om receive bufre inneholder noe. se s. 69 i mcp2515
		volatile uint8_t statusReg = mcp2515_read_status();
     998:	80 dd       	rcall	.-1280   	; 0x49a <mcp2515_read_status>
     99a:	8c 8b       	std	Y+20, r24	; 0x14
	
		if(test_bit(statusReg, 0)){ //Mulig å lage det som en funskjon i ettertid
     99c:	8c 89       	ldd	r24, Y+20	; 0x14
     99e:	80 ff       	sbrs	r24, 0
     9a0:	e6 cf       	rjmp	.-52     	; 0x96e <main+0x4c>
			
			//---------------CAN----------------------
			can_receive_message(&mottatt);		
     9a2:	ce 01       	movw	r24, r28
     9a4:	01 96       	adiw	r24, 0x01	; 1
     9a6:	74 dc       	rcall	.-1816   	; 0x290 <can_receive_message>
			
			if(mottatt.id == 2){
     9a8:	89 81       	ldd	r24, Y+1	; 0x01
     9aa:	9a 81       	ldd	r25, Y+2	; 0x02
     9ac:	02 97       	sbiw	r24, 0x02	; 2
     9ae:	19 f5       	brne	.+70     	; 0x9f6 <main+0xd4>
				KP = mottatt.data[0];
     9b0:	6b 81       	ldd	r22, Y+3	; 0x03
     9b2:	7c 81       	ldd	r23, Y+4	; 0x04
     9b4:	88 27       	eor	r24, r24
     9b6:	77 fd       	sbrc	r23, 7
     9b8:	80 95       	com	r24
     9ba:	98 2f       	mov	r25, r24
     9bc:	0c d3       	rcall	.+1560   	; 0xfd6 <__floatsisf>
     9be:	60 93 bd 02 	sts	0x02BD, r22
     9c2:	70 93 be 02 	sts	0x02BE, r23
     9c6:	80 93 bf 02 	sts	0x02BF, r24
     9ca:	90 93 c0 02 	sts	0x02C0, r25
				printf("Custom Kp = %i \n",(int)KP);
     9ce:	60 91 bd 02 	lds	r22, 0x02BD
     9d2:	70 91 be 02 	lds	r23, 0x02BE
     9d6:	80 91 bf 02 	lds	r24, 0x02BF
     9da:	90 91 c0 02 	lds	r25, 0x02C0
     9de:	c8 d2       	rcall	.+1424   	; 0xf70 <__fixsfsi>
     9e0:	7f 93       	push	r23
     9e2:	6f 93       	push	r22
     9e4:	a8 e3       	ldi	r26, 0x38	; 56
     9e6:	b2 e0       	ldi	r27, 0x02	; 2
     9e8:	bf 93       	push	r27
     9ea:	af 93       	push	r26
     9ec:	82 d4       	rcall	.+2308   	; 0x12f2 <printf>
     9ee:	0f 90       	pop	r0
     9f0:	0f 90       	pop	r0
     9f2:	0f 90       	pop	r0
     9f4:	0f 90       	pop	r0
			}
			
			
			/*-------IF CAN MESSAGE IS JOYSTICK INFO-------*/
			if(mottatt.id == 1){
     9f6:	89 81       	ldd	r24, Y+1	; 0x01
     9f8:	9a 81       	ldd	r25, Y+2	; 0x02
     9fa:	01 97       	sbiw	r24, 0x01	; 1
     9fc:	09 f0       	breq	.+2      	; 0xa00 <main+0xde>
     9fe:	5f c0       	rjmp	.+190    	; 0xabe <main+0x19c>
				mottatt_data_char0 = mottatt.data[0]; //X-akse
     a00:	4b 80       	ldd	r4, Y+3	; 0x03
     a02:	3c 80       	ldd	r3, Y+4	; 0x04
				int mottatt_data_char1 = mottatt.data[1];
     a04:	9d 81       	ldd	r25, Y+5	; 0x05
     a06:	9d 8b       	std	Y+21, r25	; 0x15
     a08:	ae 81       	ldd	r26, Y+6	; 0x06
     a0a:	ae 8b       	std	Y+22, r26	; 0x16
				int mottatt_data_char2 = mottatt.data[2];
     a0c:	bf 81       	ldd	r27, Y+7	; 0x07
     a0e:	bf 8b       	std	Y+23, r27	; 0x17
     a10:	88 85       	ldd	r24, Y+8	; 0x08
     a12:	88 8f       	std	Y+24, r24	; 0x18
				int mottatt_data_char3 = mottatt.data[3];
     a14:	99 85       	ldd	r25, Y+9	; 0x09
     a16:	99 8f       	std	Y+25, r25	; 0x19
     a18:	aa 85       	ldd	r26, Y+10	; 0x0a
     a1a:	aa 8f       	std	Y+26, r26	; 0x1a
				int mottatt_data_char4 = mottatt.data[4]; //Høyre knapp
     a1c:	eb 84       	ldd	r14, Y+11	; 0x0b
     a1e:	fc 84       	ldd	r15, Y+12	; 0x0c
				int mottatt_data_char5 = mottatt.data[5]; //Gamestatus
     a20:	bd 85       	ldd	r27, Y+13	; 0x0d
     a22:	bb 8f       	std	Y+27, r27	; 0x1b
     a24:	2e 84       	ldd	r2, Y+14	; 0x0e
				int mottatt_data_char6 = mottatt.data[6];
     a26:	cf 84       	ldd	r12, Y+15	; 0x0f
     a28:	d8 88       	ldd	r13, Y+16	; 0x10
				
				/*------------- VALUES TO MOTOR ------------------------*/
				CAN_CALIBRATION_NEEDED +=1;
     a2a:	80 91 a0 02 	lds	r24, 0x02A0
     a2e:	90 91 a1 02 	lds	r25, 0x02A1
     a32:	01 96       	adiw	r24, 0x01	; 1
     a34:	90 93 a1 02 	sts	0x02A1, r25
     a38:	80 93 a0 02 	sts	0x02A0, r24
				REF_TO_MOTOR_PID = joy_convertToPercentage(mottatt_data_char0,CAN_CALIBRATION_NEEDED); //for x-akse på joystick
     a3c:	60 91 a0 02 	lds	r22, 0x02A0
     a40:	70 91 a1 02 	lds	r23, 0x02A1
     a44:	84 2d       	mov	r24, r4
     a46:	93 2d       	mov	r25, r3
     a48:	92 dc       	rcall	.-1756   	; 0x36e <joy_convertToPercentage>
     a4a:	90 93 9f 02 	sts	0x029F, r25
     a4e:	80 93 9e 02 	sts	0x029E, r24
				ENCODERVALUE = encoder_read(); //Leser verdi på encoderen
     a52:	b5 dd       	rcall	.-1174   	; 0x5be <encoder_read>
     a54:	90 93 a5 02 	sts	0x02A5, r25
     a58:	80 93 a4 02 	sts	0x02A4, r24
				CAN_FIRST_MESSAGE_RECEIVED = 1;
     a5c:	90 92 a3 02 	sts	0x02A3, r9
     a60:	80 92 a2 02 	sts	0x02A2, r8
				
				/*----------------TO SERVO -------------------*/
				servo_positionUpdate(255-mottatt_data_char6);
     a64:	c5 01       	movw	r24, r10
     a66:	8c 19       	sub	r24, r12
     a68:	9d 09       	sbc	r25, r13
     a6a:	8f d0       	rcall	.+286    	; 0xb8a <servo_positionUpdate>
				
				/*---------------SOLENOID-----------------*/
				if(mottatt_data_char4 == 1){
     a6c:	81 e0       	ldi	r24, 0x01	; 1
     a6e:	e8 16       	cp	r14, r24
     a70:	f1 04       	cpc	r15, r1
     a72:	09 f4       	brne	.+2      	; 0xa76 <main+0x154>
					
					solenoid_shoot();
     a74:	93 d0       	rcall	.+294    	; 0xb9c <solenoid_shoot>
				}
				printf("ID: %i  LENGTH: %i   ALL DATA  %i    %i   %i    %i    %i    %i    %i   \n", mottatt.id , mottatt.length, mottatt_data_char0, mottatt_data_char1, mottatt_data_char2, mottatt_data_char3, mottatt_data_char4, mottatt_data_char5, mottatt_data_char6);
     a76:	df 92       	push	r13
     a78:	cf 92       	push	r12
     a7a:	2f 92       	push	r2
     a7c:	9b 8d       	ldd	r25, Y+27	; 0x1b
     a7e:	9f 93       	push	r25
     a80:	ff 92       	push	r15
     a82:	ef 92       	push	r14
     a84:	aa 8d       	ldd	r26, Y+26	; 0x1a
     a86:	af 93       	push	r26
     a88:	b9 8d       	ldd	r27, Y+25	; 0x19
     a8a:	bf 93       	push	r27
     a8c:	88 8d       	ldd	r24, Y+24	; 0x18
     a8e:	8f 93       	push	r24
     a90:	9f 89       	ldd	r25, Y+23	; 0x17
     a92:	9f 93       	push	r25
     a94:	ae 89       	ldd	r26, Y+22	; 0x16
     a96:	af 93       	push	r26
     a98:	bd 89       	ldd	r27, Y+21	; 0x15
     a9a:	bf 93       	push	r27
     a9c:	3f 92       	push	r3
     a9e:	4f 92       	push	r4
     aa0:	8b 89       	ldd	r24, Y+19	; 0x13
     aa2:	1f 92       	push	r1
     aa4:	8f 93       	push	r24
     aa6:	8a 81       	ldd	r24, Y+2	; 0x02
     aa8:	8f 93       	push	r24
     aaa:	89 81       	ldd	r24, Y+1	; 0x01
     aac:	8f 93       	push	r24
     aae:	7f 92       	push	r7
     ab0:	6f 92       	push	r6
     ab2:	1f d4       	rcall	.+2110   	; 0x12f2 <printf>
     ab4:	0f b6       	in	r0, 0x3f	; 63
     ab6:	f8 94       	cli
     ab8:	de bf       	out	0x3e, r29	; 62
     aba:	0f be       	out	0x3f, r0	; 63
     abc:	cd bf       	out	0x3d, r28	; 61
			}
			
			
			
			
			RECEIVE_BUFFER_INTERRUPT = 0; //clearer interruptflagget
     abe:	10 92 a9 02 	sts	0x02A9, r1
     ac2:	10 92 a8 02 	sts	0x02A8, r1
			
			
			mcp2515_bit_modify(MCP_CANINTF, 0b00000001, 0b00000000); //for å kunne reenable receive buffer 0 interrupten
     ac6:	40 e0       	ldi	r20, 0x00	; 0
     ac8:	65 2d       	mov	r22, r5
     aca:	8c e2       	ldi	r24, 0x2C	; 44
     acc:	f1 dc       	rcall	.-1566   	; 0x4b0 <mcp2515_bit_modify>
		/*if(TIMER_COMPARE_MATCH == 1){
			
			TIMER_COMPARE_MATCH = 0;
		}*/
		
	}
     ace:	4f cf       	rjmp	.-354    	; 0x96e <main+0x4c>

00000ad0 <__vector_3>:
}

ISR(INT2_vect){
     ad0:	1f 92       	push	r1
     ad2:	0f 92       	push	r0
     ad4:	0f b6       	in	r0, 0x3f	; 63
     ad6:	0f 92       	push	r0
     ad8:	11 24       	eor	r1, r1
     ada:	8f 93       	push	r24
     adc:	9f 93       	push	r25
	RECEIVE_BUFFER_INTERRUPT = 1;
     ade:	81 e0       	ldi	r24, 0x01	; 1
     ae0:	90 e0       	ldi	r25, 0x00	; 0
     ae2:	90 93 a9 02 	sts	0x02A9, r25
     ae6:	80 93 a8 02 	sts	0x02A8, r24
	
}
     aea:	9f 91       	pop	r25
     aec:	8f 91       	pop	r24
     aee:	0f 90       	pop	r0
     af0:	0f be       	out	0x3f, r0	; 63
     af2:	0f 90       	pop	r0
     af4:	1f 90       	pop	r1
     af6:	18 95       	reti

00000af8 <__vector_29>:

ISR(ADC_vect){
     af8:	1f 92       	push	r1
     afa:	0f 92       	push	r0
     afc:	0f b6       	in	r0, 0x3f	; 63
     afe:	0f 92       	push	r0
     b00:	11 24       	eor	r1, r1
     b02:	8f 93       	push	r24
     b04:	9f 93       	push	r25
	ADC_CONVERSION_COMPLETE_INTERRUPT = 1;
     b06:	81 e0       	ldi	r24, 0x01	; 1
     b08:	90 e0       	ldi	r25, 0x00	; 0
     b0a:	90 93 a7 02 	sts	0x02A7, r25
     b0e:	80 93 a6 02 	sts	0x02A6, r24
}
     b12:	9f 91       	pop	r25
     b14:	8f 91       	pop	r24
     b16:	0f 90       	pop	r0
     b18:	0f be       	out	0x3f, r0	; 63
     b1a:	0f 90       	pop	r0
     b1c:	1f 90       	pop	r1
     b1e:	18 95       	reti

00000b20 <__vector_32>:


//Timer interrupt vector for sleep of program
ISR(TIMER3_COMPA_vect){
     b20:	1f 92       	push	r1
     b22:	0f 92       	push	r0
     b24:	0f b6       	in	r0, 0x3f	; 63
     b26:	0f 92       	push	r0
     b28:	11 24       	eor	r1, r1
     b2a:	0b b6       	in	r0, 0x3b	; 59
     b2c:	0f 92       	push	r0
     b2e:	2f 93       	push	r18
     b30:	3f 93       	push	r19
     b32:	4f 93       	push	r20
     b34:	5f 93       	push	r21
     b36:	6f 93       	push	r22
     b38:	7f 93       	push	r23
     b3a:	8f 93       	push	r24
     b3c:	9f 93       	push	r25
     b3e:	af 93       	push	r26
     b40:	bf 93       	push	r27
     b42:	ef 93       	push	r30
     b44:	ff 93       	push	r31
	//sleep_disable();
	if(CAN_FIRST_MESSAGE_RECEIVED == 1){
     b46:	80 91 a2 02 	lds	r24, 0x02A2
     b4a:	90 91 a3 02 	lds	r25, 0x02A3
     b4e:	01 97       	sbiw	r24, 0x01	; 1
     b50:	49 f4       	brne	.+18     	; 0xb64 <__vector_32+0x44>
		motor_PIDspeed(REF_TO_MOTOR_PID,ENCODERVALUE);  ////Oppdater PID og spenning til motor (u)
     b52:	60 91 a4 02 	lds	r22, 0x02A4
     b56:	70 91 a5 02 	lds	r23, 0x02A5
     b5a:	80 91 9e 02 	lds	r24, 0x029E
     b5e:	90 91 9f 02 	lds	r25, 0x029F
     b62:	ad dd       	rcall	.-1190   	; 0x6be <motor_PIDspeed>
	}
     b64:	ff 91       	pop	r31
     b66:	ef 91       	pop	r30
     b68:	bf 91       	pop	r27
     b6a:	af 91       	pop	r26
     b6c:	9f 91       	pop	r25
     b6e:	8f 91       	pop	r24
     b70:	7f 91       	pop	r23
     b72:	6f 91       	pop	r22
     b74:	5f 91       	pop	r21
     b76:	4f 91       	pop	r20
     b78:	3f 91       	pop	r19
     b7a:	2f 91       	pop	r18
     b7c:	0f 90       	pop	r0
     b7e:	0b be       	out	0x3b, r0	; 59
     b80:	0f 90       	pop	r0
     b82:	0f be       	out	0x3f, r0	; 63
     b84:	0f 90       	pop	r0
     b86:	1f 90       	pop	r1
     b88:	18 95       	reti

00000b8a <servo_positionUpdate>:
#include "servo.h"



void servo_positionUpdate(int rawJoystickValue){
	int percent = joy_getPercent(rawJoystickValue);
     b8a:	37 dc       	rcall	.-1938   	; 0x3fa <joy_getPercent>
	
	if(percent>=0 && percent<=100){
     b8c:	85 36       	cpi	r24, 0x65	; 101
     b8e:	91 05       	cpc	r25, r1
     b90:	08 f4       	brcc	.+2      	; 0xb94 <servo_positionUpdate+0xa>
		timer_dutyCycleUpdate(percent);
     b92:	55 c0       	rjmp	.+170    	; 0xc3e <timer_dutyCycleUpdate>
     b94:	08 95       	ret

00000b96 <solenoid_init>:
#define test_bit( reg, bit ) (reg & (1 << bit))


void solenoid_init(void){
	//Setter pin A1 til output og høy
	set_bit(DDRF, PF1);
     b96:	81 9a       	sbi	0x10, 1	; 16
	clear_bit(PORTF, PF1); //A1 høy
     b98:	89 98       	cbi	0x11, 1	; 17
     b9a:	08 95       	ret

00000b9c <solenoid_shoot>:
}

void solenoid_shoot(void){
	// Seter en puls på pin A1
	clear_bit(PORTF, PF1);
     b9c:	89 98       	cbi	0x11, 1	; 17
	#else
		//round up by default
		__ticks_dc = (uint32_t)(ceil(fabs(__tmp)));
	#endif

	__builtin_avr_delay_cycles(__ticks_dc);
     b9e:	2f e7       	ldi	r18, 0x7F	; 127
     ba0:	89 ea       	ldi	r24, 0xA9	; 169
     ba2:	93 e0       	ldi	r25, 0x03	; 3
     ba4:	21 50       	subi	r18, 0x01	; 1
     ba6:	80 40       	sbci	r24, 0x00	; 0
     ba8:	90 40       	sbci	r25, 0x00	; 0
     baa:	e1 f7       	brne	.-8      	; 0xba4 <solenoid_shoot+0x8>
     bac:	00 c0       	rjmp	.+0      	; 0xbae <solenoid_shoot+0x12>
     bae:	00 00       	nop
	
	_delay_ms(75);
	set_bit(PORTF, PF1);
     bb0:	89 9a       	sbi	0x11, 1	; 17
     bb2:	08 95       	ret

00000bb4 <timer_timedInterrupt>:
	//timercount = targetTime/(1.6*10^(-5));
	//int timerCount = targetTime/(T)-1; //6249. -1 fordi det tar en klokkesykel å resette klokken.
	
	int timerCount = 625*5; //Nå oppdateres det hvert 0.05 sekund
	//Set compare match register to desired timer count
	OCR3A = timerCount;
     bb4:	85 e3       	ldi	r24, 0x35	; 53
     bb6:	9c e0       	ldi	r25, 0x0C	; 12
     bb8:	90 93 99 00 	sts	0x0099, r25
     bbc:	80 93 98 00 	sts	0x0098, r24
	
	
	
	TCCR3A = 0;     // set entire TCCR3A register to 0
     bc0:	10 92 90 00 	sts	0x0090, r1
	TCCR3B = 0;     // same for TCCR3B
     bc4:	e1 e9       	ldi	r30, 0x91	; 145
     bc6:	f0 e0       	ldi	r31, 0x00	; 0
     bc8:	10 82       	st	Z, r1
	
	//Enable CTC
	set_bit(TCCR3B,WGM32);
     bca:	80 81       	ld	r24, Z
     bcc:	88 60       	ori	r24, 0x08	; 8
     bce:	80 83       	st	Z, r24
	
	//Prescaler 256
	set_bit(TCCR3B,CS12);
     bd0:	80 81       	ld	r24, Z
     bd2:	84 60       	ori	r24, 0x04	; 4
     bd4:	80 83       	st	Z, r24
	clear_bit(TCCR3B,CS11);
     bd6:	80 81       	ld	r24, Z
     bd8:	8d 7f       	andi	r24, 0xFD	; 253
     bda:	80 83       	st	Z, r24
	clear_bit(TCCR3B,CS10);
     bdc:	80 81       	ld	r24, Z
     bde:	8e 7f       	andi	r24, 0xFE	; 254
     be0:	80 83       	st	Z, r24
	
	//Enable timer compare interrupt
	set_bit(TIMSK3,OCIE3A);
     be2:	e1 e7       	ldi	r30, 0x71	; 113
     be4:	f0 e0       	ldi	r31, 0x00	; 0
     be6:	80 81       	ld	r24, Z
     be8:	82 60       	ori	r24, 0x02	; 2
     bea:	80 83       	st	Z, r24
     bec:	08 95       	ret

00000bee <timer_init>:
#define test_bit( reg, bit ) (reg & (1 << bit))

void timer_init(){
	
	//Fast PWM set up. s.145 in ATmega2560 datasheet
	clear_bit(TCCR1A,WGM10);
     bee:	a0 e8       	ldi	r26, 0x80	; 128
     bf0:	b0 e0       	ldi	r27, 0x00	; 0
     bf2:	8c 91       	ld	r24, X
     bf4:	8e 7f       	andi	r24, 0xFE	; 254
     bf6:	8c 93       	st	X, r24
	set_bit(TCCR1A,WGM11);
     bf8:	8c 91       	ld	r24, X
     bfa:	82 60       	ori	r24, 0x02	; 2
     bfc:	8c 93       	st	X, r24
	set_bit(TCCR1B,WGM12);
     bfe:	e1 e8       	ldi	r30, 0x81	; 129
     c00:	f0 e0       	ldi	r31, 0x00	; 0
     c02:	80 81       	ld	r24, Z
     c04:	88 60       	ori	r24, 0x08	; 8
     c06:	80 83       	st	Z, r24
	set_bit(TCCR1B,WGM13);
     c08:	80 81       	ld	r24, Z
     c0a:	80 61       	ori	r24, 0x10	; 16
     c0c:	80 83       	st	Z, r24
	
	//Setter til non-inverted PWM, s. 155
	set_bit(TCCR1A,COM1A1);
     c0e:	8c 91       	ld	r24, X
     c10:	80 68       	ori	r24, 0x80	; 128
     c12:	8c 93       	st	X, r24
	clear_bit(TCCR1A,COM1A0);
     c14:	8c 91       	ld	r24, X
     c16:	8f 7b       	andi	r24, 0xBF	; 191
     c18:	8c 93       	st	X, r24
	
	//Setter prescaler til 256 s.156-157
	set_bit(TCCR1B,CS12);
     c1a:	80 81       	ld	r24, Z
     c1c:	84 60       	ori	r24, 0x04	; 4
     c1e:	80 83       	st	Z, r24
	clear_bit(TCCR1B,CS11);
     c20:	80 81       	ld	r24, Z
     c22:	8d 7f       	andi	r24, 0xFD	; 253
     c24:	80 83       	st	Z, r24
	clear_bit(TCCR1B,CS10);
     c26:	80 81       	ld	r24, Z
     c28:	8e 7f       	andi	r24, 0xFE	; 254
     c2a:	80 83       	st	Z, r24
	
	//Setter OC1A til output (Skal være PB5 i DDRA register?)
	set_bit(DDRB, PB5);
     c2c:	25 9a       	sbi	0x04, 5	; 4
	
	//Setter maksverdi for 20ms periode
	uint16_t prescaler = 256;
	uint16_t F_OC1A = 50; // 1/(20*10^-3)
	uint16_t top = (F_CPU)/(prescaler*F_OC1A)-1; // = 1249 
	ICR1 = top;
     c2e:	81 ee       	ldi	r24, 0xE1	; 225
     c30:	94 e0       	ldi	r25, 0x04	; 4
     c32:	90 93 87 00 	sts	0x0087, r25
     c36:	80 93 86 00 	sts	0x0086, r24
	*/
	//Enable timer compare interrupt for waking up program
	
	
	
	timer_timedInterrupt(); //Enable timed interrupt (FOR PID)
     c3a:	bc cf       	rjmp	.-136    	; 0xbb4 <timer_timedInterrupt>
     c3c:	08 95       	ret

00000c3e <timer_dutyCycleUpdate>:
	//Enable timer compare interrupt
	set_bit(TIMSK3,OCIE3A);
}
int timer_dutyCycleUpdate(int percent){
	
	if (percent <  0 || percent > 100)
     c3e:	85 36       	cpi	r24, 0x65	; 101
     c40:	91 05       	cpc	r25, r1
     c42:	98 f4       	brcc	.+38     	; 0xc6a <timer_dutyCycleUpdate+0x2c>
	{
		return -1;
	}
	uint16_t offset = 0; //Offset må endres utifra bord. 17 er for arbeidsplass 10. NÅ ER DET BORD 3! med 0 offset
	uint16_t top = (percent*(131-56))/100+56 -offset;
     c44:	4b e4       	ldi	r20, 0x4B	; 75
     c46:	48 9f       	mul	r20, r24
     c48:	90 01       	movw	r18, r0
     c4a:	49 9f       	mul	r20, r25
     c4c:	30 0d       	add	r19, r0
     c4e:	11 24       	eor	r1, r1
     c50:	c9 01       	movw	r24, r18
     c52:	64 e6       	ldi	r22, 0x64	; 100
     c54:	70 e0       	ldi	r23, 0x00	; 0
     c56:	d6 d2       	rcall	.+1452   	; 0x1204 <__divmodhi4>
     c58:	68 5c       	subi	r22, 0xC8	; 200
     c5a:	7f 4f       	sbci	r23, 0xFF	; 255
	OCR1A = top;
     c5c:	70 93 89 00 	sts	0x0089, r23
     c60:	60 93 88 00 	sts	0x0088, r22
	
	return 1;
     c64:	81 e0       	ldi	r24, 0x01	; 1
     c66:	90 e0       	ldi	r25, 0x00	; 0
     c68:	08 95       	ret
}
int timer_dutyCycleUpdate(int percent){
	
	if (percent <  0 || percent > 100)
	{
		return -1;
     c6a:	8f ef       	ldi	r24, 0xFF	; 255
     c6c:	9f ef       	ldi	r25, 0xFF	; 255
	uint16_t top = (percent*(131-56))/100+56 -offset;
	OCR1A = top;
	
	return 1;
	
}
     c6e:	08 95       	ret

00000c70 <TWI_Master_Initialise>:
     c70:	8c e0       	ldi	r24, 0x0C	; 12
     c72:	80 93 b8 00 	sts	0x00B8, r24
     c76:	8f ef       	ldi	r24, 0xFF	; 255
     c78:	80 93 bb 00 	sts	0x00BB, r24
     c7c:	84 e0       	ldi	r24, 0x04	; 4
     c7e:	80 93 bc 00 	sts	0x00BC, r24
     c82:	08 95       	ret

00000c84 <TWI_Start_Transceiver_With_Data>:
     c84:	ec eb       	ldi	r30, 0xBC	; 188
     c86:	f0 e0       	ldi	r31, 0x00	; 0
     c88:	20 81       	ld	r18, Z
     c8a:	20 fd       	sbrc	r18, 0
     c8c:	fd cf       	rjmp	.-6      	; 0xc88 <TWI_Start_Transceiver_With_Data+0x4>
     c8e:	60 93 ac 02 	sts	0x02AC, r22
     c92:	fc 01       	movw	r30, r24
     c94:	20 81       	ld	r18, Z
     c96:	20 93 ad 02 	sts	0x02AD, r18
     c9a:	20 fd       	sbrc	r18, 0
     c9c:	0c c0       	rjmp	.+24     	; 0xcb6 <TWI_Start_Transceiver_With_Data+0x32>
     c9e:	62 30       	cpi	r22, 0x02	; 2
     ca0:	50 f0       	brcs	.+20     	; 0xcb6 <TWI_Start_Transceiver_With_Data+0x32>
     ca2:	dc 01       	movw	r26, r24
     ca4:	11 96       	adiw	r26, 0x01	; 1
     ca6:	ee ea       	ldi	r30, 0xAE	; 174
     ca8:	f2 e0       	ldi	r31, 0x02	; 2
     caa:	81 e0       	ldi	r24, 0x01	; 1
     cac:	9d 91       	ld	r25, X+
     cae:	91 93       	st	Z+, r25
     cb0:	8f 5f       	subi	r24, 0xFF	; 255
     cb2:	86 13       	cpse	r24, r22
     cb4:	fb cf       	rjmp	.-10     	; 0xcac <TWI_Start_Transceiver_With_Data+0x28>
     cb6:	10 92 ab 02 	sts	0x02AB, r1
     cba:	88 ef       	ldi	r24, 0xF8	; 248
     cbc:	80 93 06 02 	sts	0x0206, r24
     cc0:	85 ea       	ldi	r24, 0xA5	; 165
     cc2:	80 93 bc 00 	sts	0x00BC, r24
     cc6:	08 95       	ret

00000cc8 <__vector_39>:
     cc8:	1f 92       	push	r1
     cca:	0f 92       	push	r0
     ccc:	0f b6       	in	r0, 0x3f	; 63
     cce:	0f 92       	push	r0
     cd0:	11 24       	eor	r1, r1
     cd2:	0b b6       	in	r0, 0x3b	; 59
     cd4:	0f 92       	push	r0
     cd6:	2f 93       	push	r18
     cd8:	3f 93       	push	r19
     cda:	8f 93       	push	r24
     cdc:	9f 93       	push	r25
     cde:	af 93       	push	r26
     ce0:	bf 93       	push	r27
     ce2:	ef 93       	push	r30
     ce4:	ff 93       	push	r31
     ce6:	80 91 b9 00 	lds	r24, 0x00B9
     cea:	90 e0       	ldi	r25, 0x00	; 0
     cec:	fc 01       	movw	r30, r24
     cee:	38 97       	sbiw	r30, 0x08	; 8
     cf0:	e1 35       	cpi	r30, 0x51	; 81
     cf2:	f1 05       	cpc	r31, r1
     cf4:	08 f0       	brcs	.+2      	; 0xcf8 <__vector_39+0x30>
     cf6:	55 c0       	rjmp	.+170    	; 0xda2 <__vector_39+0xda>
     cf8:	ee 58       	subi	r30, 0x8E	; 142
     cfa:	ff 4f       	sbci	r31, 0xFF	; 255
     cfc:	96 c2       	rjmp	.+1324   	; 0x122a <__tablejump2__>
     cfe:	10 92 aa 02 	sts	0x02AA, r1
     d02:	e0 91 aa 02 	lds	r30, 0x02AA
     d06:	80 91 ac 02 	lds	r24, 0x02AC
     d0a:	e8 17       	cp	r30, r24
     d0c:	70 f4       	brcc	.+28     	; 0xd2a <__vector_39+0x62>
     d0e:	81 e0       	ldi	r24, 0x01	; 1
     d10:	8e 0f       	add	r24, r30
     d12:	80 93 aa 02 	sts	0x02AA, r24
     d16:	f0 e0       	ldi	r31, 0x00	; 0
     d18:	e3 55       	subi	r30, 0x53	; 83
     d1a:	fd 4f       	sbci	r31, 0xFD	; 253
     d1c:	80 81       	ld	r24, Z
     d1e:	80 93 bb 00 	sts	0x00BB, r24
     d22:	85 e8       	ldi	r24, 0x85	; 133
     d24:	80 93 bc 00 	sts	0x00BC, r24
     d28:	43 c0       	rjmp	.+134    	; 0xdb0 <__vector_39+0xe8>
     d2a:	80 91 ab 02 	lds	r24, 0x02AB
     d2e:	81 60       	ori	r24, 0x01	; 1
     d30:	80 93 ab 02 	sts	0x02AB, r24
     d34:	84 e9       	ldi	r24, 0x94	; 148
     d36:	80 93 bc 00 	sts	0x00BC, r24
     d3a:	3a c0       	rjmp	.+116    	; 0xdb0 <__vector_39+0xe8>
     d3c:	e0 91 aa 02 	lds	r30, 0x02AA
     d40:	81 e0       	ldi	r24, 0x01	; 1
     d42:	8e 0f       	add	r24, r30
     d44:	80 93 aa 02 	sts	0x02AA, r24
     d48:	80 91 bb 00 	lds	r24, 0x00BB
     d4c:	f0 e0       	ldi	r31, 0x00	; 0
     d4e:	e3 55       	subi	r30, 0x53	; 83
     d50:	fd 4f       	sbci	r31, 0xFD	; 253
     d52:	80 83       	st	Z, r24
     d54:	20 91 aa 02 	lds	r18, 0x02AA
     d58:	30 e0       	ldi	r19, 0x00	; 0
     d5a:	80 91 ac 02 	lds	r24, 0x02AC
     d5e:	90 e0       	ldi	r25, 0x00	; 0
     d60:	01 97       	sbiw	r24, 0x01	; 1
     d62:	28 17       	cp	r18, r24
     d64:	39 07       	cpc	r19, r25
     d66:	24 f4       	brge	.+8      	; 0xd70 <__vector_39+0xa8>
     d68:	85 ec       	ldi	r24, 0xC5	; 197
     d6a:	80 93 bc 00 	sts	0x00BC, r24
     d6e:	20 c0       	rjmp	.+64     	; 0xdb0 <__vector_39+0xe8>
     d70:	85 e8       	ldi	r24, 0x85	; 133
     d72:	80 93 bc 00 	sts	0x00BC, r24
     d76:	1c c0       	rjmp	.+56     	; 0xdb0 <__vector_39+0xe8>
     d78:	80 91 bb 00 	lds	r24, 0x00BB
     d7c:	e0 91 aa 02 	lds	r30, 0x02AA
     d80:	f0 e0       	ldi	r31, 0x00	; 0
     d82:	e3 55       	subi	r30, 0x53	; 83
     d84:	fd 4f       	sbci	r31, 0xFD	; 253
     d86:	80 83       	st	Z, r24
     d88:	80 91 ab 02 	lds	r24, 0x02AB
     d8c:	81 60       	ori	r24, 0x01	; 1
     d8e:	80 93 ab 02 	sts	0x02AB, r24
     d92:	84 e9       	ldi	r24, 0x94	; 148
     d94:	80 93 bc 00 	sts	0x00BC, r24
     d98:	0b c0       	rjmp	.+22     	; 0xdb0 <__vector_39+0xe8>
     d9a:	85 ea       	ldi	r24, 0xA5	; 165
     d9c:	80 93 bc 00 	sts	0x00BC, r24
     da0:	07 c0       	rjmp	.+14     	; 0xdb0 <__vector_39+0xe8>
     da2:	80 91 b9 00 	lds	r24, 0x00B9
     da6:	80 93 06 02 	sts	0x0206, r24
     daa:	84 e0       	ldi	r24, 0x04	; 4
     dac:	80 93 bc 00 	sts	0x00BC, r24
     db0:	ff 91       	pop	r31
     db2:	ef 91       	pop	r30
     db4:	bf 91       	pop	r27
     db6:	af 91       	pop	r26
     db8:	9f 91       	pop	r25
     dba:	8f 91       	pop	r24
     dbc:	3f 91       	pop	r19
     dbe:	2f 91       	pop	r18
     dc0:	0f 90       	pop	r0
     dc2:	0b be       	out	0x3b, r0	; 59
     dc4:	0f 90       	pop	r0
     dc6:	0f be       	out	0x3f, r0	; 63
     dc8:	0f 90       	pop	r0
     dca:	1f 90       	pop	r1
     dcc:	18 95       	reti

00000dce <__subsf3>:
     dce:	50 58       	subi	r21, 0x80	; 128

00000dd0 <__addsf3>:
     dd0:	bb 27       	eor	r27, r27
     dd2:	aa 27       	eor	r26, r26
     dd4:	0e d0       	rcall	.+28     	; 0xdf2 <__addsf3x>
     dd6:	75 c1       	rjmp	.+746    	; 0x10c2 <__fp_round>
     dd8:	66 d1       	rcall	.+716    	; 0x10a6 <__fp_pscA>
     dda:	30 f0       	brcs	.+12     	; 0xde8 <__addsf3+0x18>
     ddc:	6b d1       	rcall	.+726    	; 0x10b4 <__fp_pscB>
     dde:	20 f0       	brcs	.+8      	; 0xde8 <__addsf3+0x18>
     de0:	31 f4       	brne	.+12     	; 0xdee <__addsf3+0x1e>
     de2:	9f 3f       	cpi	r25, 0xFF	; 255
     de4:	11 f4       	brne	.+4      	; 0xdea <__addsf3+0x1a>
     de6:	1e f4       	brtc	.+6      	; 0xdee <__addsf3+0x1e>
     de8:	5b c1       	rjmp	.+694    	; 0x10a0 <__fp_nan>
     dea:	0e f4       	brtc	.+2      	; 0xdee <__addsf3+0x1e>
     dec:	e0 95       	com	r30
     dee:	e7 fb       	bst	r30, 7
     df0:	51 c1       	rjmp	.+674    	; 0x1094 <__fp_inf>

00000df2 <__addsf3x>:
     df2:	e9 2f       	mov	r30, r25
     df4:	77 d1       	rcall	.+750    	; 0x10e4 <__fp_split3>
     df6:	80 f3       	brcs	.-32     	; 0xdd8 <__addsf3+0x8>
     df8:	ba 17       	cp	r27, r26
     dfa:	62 07       	cpc	r22, r18
     dfc:	73 07       	cpc	r23, r19
     dfe:	84 07       	cpc	r24, r20
     e00:	95 07       	cpc	r25, r21
     e02:	18 f0       	brcs	.+6      	; 0xe0a <__addsf3x+0x18>
     e04:	71 f4       	brne	.+28     	; 0xe22 <__addsf3x+0x30>
     e06:	9e f5       	brtc	.+102    	; 0xe6e <__addsf3x+0x7c>
     e08:	8f c1       	rjmp	.+798    	; 0x1128 <__fp_zero>
     e0a:	0e f4       	brtc	.+2      	; 0xe0e <__addsf3x+0x1c>
     e0c:	e0 95       	com	r30
     e0e:	0b 2e       	mov	r0, r27
     e10:	ba 2f       	mov	r27, r26
     e12:	a0 2d       	mov	r26, r0
     e14:	0b 01       	movw	r0, r22
     e16:	b9 01       	movw	r22, r18
     e18:	90 01       	movw	r18, r0
     e1a:	0c 01       	movw	r0, r24
     e1c:	ca 01       	movw	r24, r20
     e1e:	a0 01       	movw	r20, r0
     e20:	11 24       	eor	r1, r1
     e22:	ff 27       	eor	r31, r31
     e24:	59 1b       	sub	r21, r25
     e26:	99 f0       	breq	.+38     	; 0xe4e <__addsf3x+0x5c>
     e28:	59 3f       	cpi	r21, 0xF9	; 249
     e2a:	50 f4       	brcc	.+20     	; 0xe40 <__addsf3x+0x4e>
     e2c:	50 3e       	cpi	r21, 0xE0	; 224
     e2e:	68 f1       	brcs	.+90     	; 0xe8a <__addsf3x+0x98>
     e30:	1a 16       	cp	r1, r26
     e32:	f0 40       	sbci	r31, 0x00	; 0
     e34:	a2 2f       	mov	r26, r18
     e36:	23 2f       	mov	r18, r19
     e38:	34 2f       	mov	r19, r20
     e3a:	44 27       	eor	r20, r20
     e3c:	58 5f       	subi	r21, 0xF8	; 248
     e3e:	f3 cf       	rjmp	.-26     	; 0xe26 <__addsf3x+0x34>
     e40:	46 95       	lsr	r20
     e42:	37 95       	ror	r19
     e44:	27 95       	ror	r18
     e46:	a7 95       	ror	r26
     e48:	f0 40       	sbci	r31, 0x00	; 0
     e4a:	53 95       	inc	r21
     e4c:	c9 f7       	brne	.-14     	; 0xe40 <__addsf3x+0x4e>
     e4e:	7e f4       	brtc	.+30     	; 0xe6e <__addsf3x+0x7c>
     e50:	1f 16       	cp	r1, r31
     e52:	ba 0b       	sbc	r27, r26
     e54:	62 0b       	sbc	r22, r18
     e56:	73 0b       	sbc	r23, r19
     e58:	84 0b       	sbc	r24, r20
     e5a:	ba f0       	brmi	.+46     	; 0xe8a <__addsf3x+0x98>
     e5c:	91 50       	subi	r25, 0x01	; 1
     e5e:	a1 f0       	breq	.+40     	; 0xe88 <__addsf3x+0x96>
     e60:	ff 0f       	add	r31, r31
     e62:	bb 1f       	adc	r27, r27
     e64:	66 1f       	adc	r22, r22
     e66:	77 1f       	adc	r23, r23
     e68:	88 1f       	adc	r24, r24
     e6a:	c2 f7       	brpl	.-16     	; 0xe5c <__addsf3x+0x6a>
     e6c:	0e c0       	rjmp	.+28     	; 0xe8a <__addsf3x+0x98>
     e6e:	ba 0f       	add	r27, r26
     e70:	62 1f       	adc	r22, r18
     e72:	73 1f       	adc	r23, r19
     e74:	84 1f       	adc	r24, r20
     e76:	48 f4       	brcc	.+18     	; 0xe8a <__addsf3x+0x98>
     e78:	87 95       	ror	r24
     e7a:	77 95       	ror	r23
     e7c:	67 95       	ror	r22
     e7e:	b7 95       	ror	r27
     e80:	f7 95       	ror	r31
     e82:	9e 3f       	cpi	r25, 0xFE	; 254
     e84:	08 f0       	brcs	.+2      	; 0xe88 <__addsf3x+0x96>
     e86:	b3 cf       	rjmp	.-154    	; 0xdee <__addsf3+0x1e>
     e88:	93 95       	inc	r25
     e8a:	88 0f       	add	r24, r24
     e8c:	08 f0       	brcs	.+2      	; 0xe90 <__addsf3x+0x9e>
     e8e:	99 27       	eor	r25, r25
     e90:	ee 0f       	add	r30, r30
     e92:	97 95       	ror	r25
     e94:	87 95       	ror	r24
     e96:	08 95       	ret

00000e98 <__cmpsf2>:
     e98:	d9 d0       	rcall	.+434    	; 0x104c <__fp_cmp>
     e9a:	08 f4       	brcc	.+2      	; 0xe9e <__cmpsf2+0x6>
     e9c:	81 e0       	ldi	r24, 0x01	; 1
     e9e:	08 95       	ret

00000ea0 <__divsf3>:
     ea0:	0c d0       	rcall	.+24     	; 0xeba <__divsf3x>
     ea2:	0f c1       	rjmp	.+542    	; 0x10c2 <__fp_round>
     ea4:	07 d1       	rcall	.+526    	; 0x10b4 <__fp_pscB>
     ea6:	40 f0       	brcs	.+16     	; 0xeb8 <__divsf3+0x18>
     ea8:	fe d0       	rcall	.+508    	; 0x10a6 <__fp_pscA>
     eaa:	30 f0       	brcs	.+12     	; 0xeb8 <__divsf3+0x18>
     eac:	21 f4       	brne	.+8      	; 0xeb6 <__divsf3+0x16>
     eae:	5f 3f       	cpi	r21, 0xFF	; 255
     eb0:	19 f0       	breq	.+6      	; 0xeb8 <__divsf3+0x18>
     eb2:	f0 c0       	rjmp	.+480    	; 0x1094 <__fp_inf>
     eb4:	51 11       	cpse	r21, r1
     eb6:	39 c1       	rjmp	.+626    	; 0x112a <__fp_szero>
     eb8:	f3 c0       	rjmp	.+486    	; 0x10a0 <__fp_nan>

00000eba <__divsf3x>:
     eba:	14 d1       	rcall	.+552    	; 0x10e4 <__fp_split3>
     ebc:	98 f3       	brcs	.-26     	; 0xea4 <__divsf3+0x4>

00000ebe <__divsf3_pse>:
     ebe:	99 23       	and	r25, r25
     ec0:	c9 f3       	breq	.-14     	; 0xeb4 <__divsf3+0x14>
     ec2:	55 23       	and	r21, r21
     ec4:	b1 f3       	breq	.-20     	; 0xeb2 <__divsf3+0x12>
     ec6:	95 1b       	sub	r25, r21
     ec8:	55 0b       	sbc	r21, r21
     eca:	bb 27       	eor	r27, r27
     ecc:	aa 27       	eor	r26, r26
     ece:	62 17       	cp	r22, r18
     ed0:	73 07       	cpc	r23, r19
     ed2:	84 07       	cpc	r24, r20
     ed4:	38 f0       	brcs	.+14     	; 0xee4 <__divsf3_pse+0x26>
     ed6:	9f 5f       	subi	r25, 0xFF	; 255
     ed8:	5f 4f       	sbci	r21, 0xFF	; 255
     eda:	22 0f       	add	r18, r18
     edc:	33 1f       	adc	r19, r19
     ede:	44 1f       	adc	r20, r20
     ee0:	aa 1f       	adc	r26, r26
     ee2:	a9 f3       	breq	.-22     	; 0xece <__divsf3_pse+0x10>
     ee4:	33 d0       	rcall	.+102    	; 0xf4c <__divsf3_pse+0x8e>
     ee6:	0e 2e       	mov	r0, r30
     ee8:	3a f0       	brmi	.+14     	; 0xef8 <__divsf3_pse+0x3a>
     eea:	e0 e8       	ldi	r30, 0x80	; 128
     eec:	30 d0       	rcall	.+96     	; 0xf4e <__divsf3_pse+0x90>
     eee:	91 50       	subi	r25, 0x01	; 1
     ef0:	50 40       	sbci	r21, 0x00	; 0
     ef2:	e6 95       	lsr	r30
     ef4:	00 1c       	adc	r0, r0
     ef6:	ca f7       	brpl	.-14     	; 0xeea <__divsf3_pse+0x2c>
     ef8:	29 d0       	rcall	.+82     	; 0xf4c <__divsf3_pse+0x8e>
     efa:	fe 2f       	mov	r31, r30
     efc:	27 d0       	rcall	.+78     	; 0xf4c <__divsf3_pse+0x8e>
     efe:	66 0f       	add	r22, r22
     f00:	77 1f       	adc	r23, r23
     f02:	88 1f       	adc	r24, r24
     f04:	bb 1f       	adc	r27, r27
     f06:	26 17       	cp	r18, r22
     f08:	37 07       	cpc	r19, r23
     f0a:	48 07       	cpc	r20, r24
     f0c:	ab 07       	cpc	r26, r27
     f0e:	b0 e8       	ldi	r27, 0x80	; 128
     f10:	09 f0       	breq	.+2      	; 0xf14 <__divsf3_pse+0x56>
     f12:	bb 0b       	sbc	r27, r27
     f14:	80 2d       	mov	r24, r0
     f16:	bf 01       	movw	r22, r30
     f18:	ff 27       	eor	r31, r31
     f1a:	93 58       	subi	r25, 0x83	; 131
     f1c:	5f 4f       	sbci	r21, 0xFF	; 255
     f1e:	2a f0       	brmi	.+10     	; 0xf2a <__divsf3_pse+0x6c>
     f20:	9e 3f       	cpi	r25, 0xFE	; 254
     f22:	51 05       	cpc	r21, r1
     f24:	68 f0       	brcs	.+26     	; 0xf40 <__divsf3_pse+0x82>
     f26:	b6 c0       	rjmp	.+364    	; 0x1094 <__fp_inf>
     f28:	00 c1       	rjmp	.+512    	; 0x112a <__fp_szero>
     f2a:	5f 3f       	cpi	r21, 0xFF	; 255
     f2c:	ec f3       	brlt	.-6      	; 0xf28 <__divsf3_pse+0x6a>
     f2e:	98 3e       	cpi	r25, 0xE8	; 232
     f30:	dc f3       	brlt	.-10     	; 0xf28 <__divsf3_pse+0x6a>
     f32:	86 95       	lsr	r24
     f34:	77 95       	ror	r23
     f36:	67 95       	ror	r22
     f38:	b7 95       	ror	r27
     f3a:	f7 95       	ror	r31
     f3c:	9f 5f       	subi	r25, 0xFF	; 255
     f3e:	c9 f7       	brne	.-14     	; 0xf32 <__divsf3_pse+0x74>
     f40:	88 0f       	add	r24, r24
     f42:	91 1d       	adc	r25, r1
     f44:	96 95       	lsr	r25
     f46:	87 95       	ror	r24
     f48:	97 f9       	bld	r25, 7
     f4a:	08 95       	ret
     f4c:	e1 e0       	ldi	r30, 0x01	; 1
     f4e:	66 0f       	add	r22, r22
     f50:	77 1f       	adc	r23, r23
     f52:	88 1f       	adc	r24, r24
     f54:	bb 1f       	adc	r27, r27
     f56:	62 17       	cp	r22, r18
     f58:	73 07       	cpc	r23, r19
     f5a:	84 07       	cpc	r24, r20
     f5c:	ba 07       	cpc	r27, r26
     f5e:	20 f0       	brcs	.+8      	; 0xf68 <__divsf3_pse+0xaa>
     f60:	62 1b       	sub	r22, r18
     f62:	73 0b       	sbc	r23, r19
     f64:	84 0b       	sbc	r24, r20
     f66:	ba 0b       	sbc	r27, r26
     f68:	ee 1f       	adc	r30, r30
     f6a:	88 f7       	brcc	.-30     	; 0xf4e <__divsf3_pse+0x90>
     f6c:	e0 95       	com	r30
     f6e:	08 95       	ret

00000f70 <__fixsfsi>:
     f70:	04 d0       	rcall	.+8      	; 0xf7a <__fixunssfsi>
     f72:	68 94       	set
     f74:	b1 11       	cpse	r27, r1
     f76:	d9 c0       	rjmp	.+434    	; 0x112a <__fp_szero>
     f78:	08 95       	ret

00000f7a <__fixunssfsi>:
     f7a:	bc d0       	rcall	.+376    	; 0x10f4 <__fp_splitA>
     f7c:	88 f0       	brcs	.+34     	; 0xfa0 <__fixunssfsi+0x26>
     f7e:	9f 57       	subi	r25, 0x7F	; 127
     f80:	90 f0       	brcs	.+36     	; 0xfa6 <__fixunssfsi+0x2c>
     f82:	b9 2f       	mov	r27, r25
     f84:	99 27       	eor	r25, r25
     f86:	b7 51       	subi	r27, 0x17	; 23
     f88:	a0 f0       	brcs	.+40     	; 0xfb2 <__fixunssfsi+0x38>
     f8a:	d1 f0       	breq	.+52     	; 0xfc0 <__fixunssfsi+0x46>
     f8c:	66 0f       	add	r22, r22
     f8e:	77 1f       	adc	r23, r23
     f90:	88 1f       	adc	r24, r24
     f92:	99 1f       	adc	r25, r25
     f94:	1a f0       	brmi	.+6      	; 0xf9c <__fixunssfsi+0x22>
     f96:	ba 95       	dec	r27
     f98:	c9 f7       	brne	.-14     	; 0xf8c <__fixunssfsi+0x12>
     f9a:	12 c0       	rjmp	.+36     	; 0xfc0 <__fixunssfsi+0x46>
     f9c:	b1 30       	cpi	r27, 0x01	; 1
     f9e:	81 f0       	breq	.+32     	; 0xfc0 <__fixunssfsi+0x46>
     fa0:	c3 d0       	rcall	.+390    	; 0x1128 <__fp_zero>
     fa2:	b1 e0       	ldi	r27, 0x01	; 1
     fa4:	08 95       	ret
     fa6:	c0 c0       	rjmp	.+384    	; 0x1128 <__fp_zero>
     fa8:	67 2f       	mov	r22, r23
     faa:	78 2f       	mov	r23, r24
     fac:	88 27       	eor	r24, r24
     fae:	b8 5f       	subi	r27, 0xF8	; 248
     fb0:	39 f0       	breq	.+14     	; 0xfc0 <__fixunssfsi+0x46>
     fb2:	b9 3f       	cpi	r27, 0xF9	; 249
     fb4:	cc f3       	brlt	.-14     	; 0xfa8 <__fixunssfsi+0x2e>
     fb6:	86 95       	lsr	r24
     fb8:	77 95       	ror	r23
     fba:	67 95       	ror	r22
     fbc:	b3 95       	inc	r27
     fbe:	d9 f7       	brne	.-10     	; 0xfb6 <__fixunssfsi+0x3c>
     fc0:	3e f4       	brtc	.+14     	; 0xfd0 <__fixunssfsi+0x56>
     fc2:	90 95       	com	r25
     fc4:	80 95       	com	r24
     fc6:	70 95       	com	r23
     fc8:	61 95       	neg	r22
     fca:	7f 4f       	sbci	r23, 0xFF	; 255
     fcc:	8f 4f       	sbci	r24, 0xFF	; 255
     fce:	9f 4f       	sbci	r25, 0xFF	; 255
     fd0:	08 95       	ret

00000fd2 <__floatunsisf>:
     fd2:	e8 94       	clt
     fd4:	09 c0       	rjmp	.+18     	; 0xfe8 <__floatsisf+0x12>

00000fd6 <__floatsisf>:
     fd6:	97 fb       	bst	r25, 7
     fd8:	3e f4       	brtc	.+14     	; 0xfe8 <__floatsisf+0x12>
     fda:	90 95       	com	r25
     fdc:	80 95       	com	r24
     fde:	70 95       	com	r23
     fe0:	61 95       	neg	r22
     fe2:	7f 4f       	sbci	r23, 0xFF	; 255
     fe4:	8f 4f       	sbci	r24, 0xFF	; 255
     fe6:	9f 4f       	sbci	r25, 0xFF	; 255
     fe8:	99 23       	and	r25, r25
     fea:	a9 f0       	breq	.+42     	; 0x1016 <__floatsisf+0x40>
     fec:	f9 2f       	mov	r31, r25
     fee:	96 e9       	ldi	r25, 0x96	; 150
     ff0:	bb 27       	eor	r27, r27
     ff2:	93 95       	inc	r25
     ff4:	f6 95       	lsr	r31
     ff6:	87 95       	ror	r24
     ff8:	77 95       	ror	r23
     ffa:	67 95       	ror	r22
     ffc:	b7 95       	ror	r27
     ffe:	f1 11       	cpse	r31, r1
    1000:	f8 cf       	rjmp	.-16     	; 0xff2 <__floatsisf+0x1c>
    1002:	fa f4       	brpl	.+62     	; 0x1042 <__floatsisf+0x6c>
    1004:	bb 0f       	add	r27, r27
    1006:	11 f4       	brne	.+4      	; 0x100c <__floatsisf+0x36>
    1008:	60 ff       	sbrs	r22, 0
    100a:	1b c0       	rjmp	.+54     	; 0x1042 <__floatsisf+0x6c>
    100c:	6f 5f       	subi	r22, 0xFF	; 255
    100e:	7f 4f       	sbci	r23, 0xFF	; 255
    1010:	8f 4f       	sbci	r24, 0xFF	; 255
    1012:	9f 4f       	sbci	r25, 0xFF	; 255
    1014:	16 c0       	rjmp	.+44     	; 0x1042 <__floatsisf+0x6c>
    1016:	88 23       	and	r24, r24
    1018:	11 f0       	breq	.+4      	; 0x101e <__floatsisf+0x48>
    101a:	96 e9       	ldi	r25, 0x96	; 150
    101c:	11 c0       	rjmp	.+34     	; 0x1040 <__floatsisf+0x6a>
    101e:	77 23       	and	r23, r23
    1020:	21 f0       	breq	.+8      	; 0x102a <__floatsisf+0x54>
    1022:	9e e8       	ldi	r25, 0x8E	; 142
    1024:	87 2f       	mov	r24, r23
    1026:	76 2f       	mov	r23, r22
    1028:	05 c0       	rjmp	.+10     	; 0x1034 <__floatsisf+0x5e>
    102a:	66 23       	and	r22, r22
    102c:	71 f0       	breq	.+28     	; 0x104a <__floatsisf+0x74>
    102e:	96 e8       	ldi	r25, 0x86	; 134
    1030:	86 2f       	mov	r24, r22
    1032:	70 e0       	ldi	r23, 0x00	; 0
    1034:	60 e0       	ldi	r22, 0x00	; 0
    1036:	2a f0       	brmi	.+10     	; 0x1042 <__floatsisf+0x6c>
    1038:	9a 95       	dec	r25
    103a:	66 0f       	add	r22, r22
    103c:	77 1f       	adc	r23, r23
    103e:	88 1f       	adc	r24, r24
    1040:	da f7       	brpl	.-10     	; 0x1038 <__floatsisf+0x62>
    1042:	88 0f       	add	r24, r24
    1044:	96 95       	lsr	r25
    1046:	87 95       	ror	r24
    1048:	97 f9       	bld	r25, 7
    104a:	08 95       	ret

0000104c <__fp_cmp>:
    104c:	99 0f       	add	r25, r25
    104e:	00 08       	sbc	r0, r0
    1050:	55 0f       	add	r21, r21
    1052:	aa 0b       	sbc	r26, r26
    1054:	e0 e8       	ldi	r30, 0x80	; 128
    1056:	fe ef       	ldi	r31, 0xFE	; 254
    1058:	16 16       	cp	r1, r22
    105a:	17 06       	cpc	r1, r23
    105c:	e8 07       	cpc	r30, r24
    105e:	f9 07       	cpc	r31, r25
    1060:	c0 f0       	brcs	.+48     	; 0x1092 <__fp_cmp+0x46>
    1062:	12 16       	cp	r1, r18
    1064:	13 06       	cpc	r1, r19
    1066:	e4 07       	cpc	r30, r20
    1068:	f5 07       	cpc	r31, r21
    106a:	98 f0       	brcs	.+38     	; 0x1092 <__fp_cmp+0x46>
    106c:	62 1b       	sub	r22, r18
    106e:	73 0b       	sbc	r23, r19
    1070:	84 0b       	sbc	r24, r20
    1072:	95 0b       	sbc	r25, r21
    1074:	39 f4       	brne	.+14     	; 0x1084 <__fp_cmp+0x38>
    1076:	0a 26       	eor	r0, r26
    1078:	61 f0       	breq	.+24     	; 0x1092 <__fp_cmp+0x46>
    107a:	23 2b       	or	r18, r19
    107c:	24 2b       	or	r18, r20
    107e:	25 2b       	or	r18, r21
    1080:	21 f4       	brne	.+8      	; 0x108a <__fp_cmp+0x3e>
    1082:	08 95       	ret
    1084:	0a 26       	eor	r0, r26
    1086:	09 f4       	brne	.+2      	; 0x108a <__fp_cmp+0x3e>
    1088:	a1 40       	sbci	r26, 0x01	; 1
    108a:	a6 95       	lsr	r26
    108c:	8f ef       	ldi	r24, 0xFF	; 255
    108e:	81 1d       	adc	r24, r1
    1090:	81 1d       	adc	r24, r1
    1092:	08 95       	ret

00001094 <__fp_inf>:
    1094:	97 f9       	bld	r25, 7
    1096:	9f 67       	ori	r25, 0x7F	; 127
    1098:	80 e8       	ldi	r24, 0x80	; 128
    109a:	70 e0       	ldi	r23, 0x00	; 0
    109c:	60 e0       	ldi	r22, 0x00	; 0
    109e:	08 95       	ret

000010a0 <__fp_nan>:
    10a0:	9f ef       	ldi	r25, 0xFF	; 255
    10a2:	80 ec       	ldi	r24, 0xC0	; 192
    10a4:	08 95       	ret

000010a6 <__fp_pscA>:
    10a6:	00 24       	eor	r0, r0
    10a8:	0a 94       	dec	r0
    10aa:	16 16       	cp	r1, r22
    10ac:	17 06       	cpc	r1, r23
    10ae:	18 06       	cpc	r1, r24
    10b0:	09 06       	cpc	r0, r25
    10b2:	08 95       	ret

000010b4 <__fp_pscB>:
    10b4:	00 24       	eor	r0, r0
    10b6:	0a 94       	dec	r0
    10b8:	12 16       	cp	r1, r18
    10ba:	13 06       	cpc	r1, r19
    10bc:	14 06       	cpc	r1, r20
    10be:	05 06       	cpc	r0, r21
    10c0:	08 95       	ret

000010c2 <__fp_round>:
    10c2:	09 2e       	mov	r0, r25
    10c4:	03 94       	inc	r0
    10c6:	00 0c       	add	r0, r0
    10c8:	11 f4       	brne	.+4      	; 0x10ce <__fp_round+0xc>
    10ca:	88 23       	and	r24, r24
    10cc:	52 f0       	brmi	.+20     	; 0x10e2 <__fp_round+0x20>
    10ce:	bb 0f       	add	r27, r27
    10d0:	40 f4       	brcc	.+16     	; 0x10e2 <__fp_round+0x20>
    10d2:	bf 2b       	or	r27, r31
    10d4:	11 f4       	brne	.+4      	; 0x10da <__fp_round+0x18>
    10d6:	60 ff       	sbrs	r22, 0
    10d8:	04 c0       	rjmp	.+8      	; 0x10e2 <__fp_round+0x20>
    10da:	6f 5f       	subi	r22, 0xFF	; 255
    10dc:	7f 4f       	sbci	r23, 0xFF	; 255
    10de:	8f 4f       	sbci	r24, 0xFF	; 255
    10e0:	9f 4f       	sbci	r25, 0xFF	; 255
    10e2:	08 95       	ret

000010e4 <__fp_split3>:
    10e4:	57 fd       	sbrc	r21, 7
    10e6:	90 58       	subi	r25, 0x80	; 128
    10e8:	44 0f       	add	r20, r20
    10ea:	55 1f       	adc	r21, r21
    10ec:	59 f0       	breq	.+22     	; 0x1104 <__fp_splitA+0x10>
    10ee:	5f 3f       	cpi	r21, 0xFF	; 255
    10f0:	71 f0       	breq	.+28     	; 0x110e <__fp_splitA+0x1a>
    10f2:	47 95       	ror	r20

000010f4 <__fp_splitA>:
    10f4:	88 0f       	add	r24, r24
    10f6:	97 fb       	bst	r25, 7
    10f8:	99 1f       	adc	r25, r25
    10fa:	61 f0       	breq	.+24     	; 0x1114 <__fp_splitA+0x20>
    10fc:	9f 3f       	cpi	r25, 0xFF	; 255
    10fe:	79 f0       	breq	.+30     	; 0x111e <__fp_splitA+0x2a>
    1100:	87 95       	ror	r24
    1102:	08 95       	ret
    1104:	12 16       	cp	r1, r18
    1106:	13 06       	cpc	r1, r19
    1108:	14 06       	cpc	r1, r20
    110a:	55 1f       	adc	r21, r21
    110c:	f2 cf       	rjmp	.-28     	; 0x10f2 <__fp_split3+0xe>
    110e:	46 95       	lsr	r20
    1110:	f1 df       	rcall	.-30     	; 0x10f4 <__fp_splitA>
    1112:	08 c0       	rjmp	.+16     	; 0x1124 <__fp_splitA+0x30>
    1114:	16 16       	cp	r1, r22
    1116:	17 06       	cpc	r1, r23
    1118:	18 06       	cpc	r1, r24
    111a:	99 1f       	adc	r25, r25
    111c:	f1 cf       	rjmp	.-30     	; 0x1100 <__fp_splitA+0xc>
    111e:	86 95       	lsr	r24
    1120:	71 05       	cpc	r23, r1
    1122:	61 05       	cpc	r22, r1
    1124:	08 94       	sec
    1126:	08 95       	ret

00001128 <__fp_zero>:
    1128:	e8 94       	clt

0000112a <__fp_szero>:
    112a:	bb 27       	eor	r27, r27
    112c:	66 27       	eor	r22, r22
    112e:	77 27       	eor	r23, r23
    1130:	cb 01       	movw	r24, r22
    1132:	97 f9       	bld	r25, 7
    1134:	08 95       	ret

00001136 <__gesf2>:
    1136:	8a df       	rcall	.-236    	; 0x104c <__fp_cmp>
    1138:	08 f4       	brcc	.+2      	; 0x113c <__gesf2+0x6>
    113a:	8f ef       	ldi	r24, 0xFF	; 255
    113c:	08 95       	ret

0000113e <__mulsf3>:
    113e:	0b d0       	rcall	.+22     	; 0x1156 <__mulsf3x>
    1140:	c0 cf       	rjmp	.-128    	; 0x10c2 <__fp_round>
    1142:	b1 df       	rcall	.-158    	; 0x10a6 <__fp_pscA>
    1144:	28 f0       	brcs	.+10     	; 0x1150 <__mulsf3+0x12>
    1146:	b6 df       	rcall	.-148    	; 0x10b4 <__fp_pscB>
    1148:	18 f0       	brcs	.+6      	; 0x1150 <__mulsf3+0x12>
    114a:	95 23       	and	r25, r21
    114c:	09 f0       	breq	.+2      	; 0x1150 <__mulsf3+0x12>
    114e:	a2 cf       	rjmp	.-188    	; 0x1094 <__fp_inf>
    1150:	a7 cf       	rjmp	.-178    	; 0x10a0 <__fp_nan>
    1152:	11 24       	eor	r1, r1
    1154:	ea cf       	rjmp	.-44     	; 0x112a <__fp_szero>

00001156 <__mulsf3x>:
    1156:	c6 df       	rcall	.-116    	; 0x10e4 <__fp_split3>
    1158:	a0 f3       	brcs	.-24     	; 0x1142 <__mulsf3+0x4>

0000115a <__mulsf3_pse>:
    115a:	95 9f       	mul	r25, r21
    115c:	d1 f3       	breq	.-12     	; 0x1152 <__mulsf3+0x14>
    115e:	95 0f       	add	r25, r21
    1160:	50 e0       	ldi	r21, 0x00	; 0
    1162:	55 1f       	adc	r21, r21
    1164:	62 9f       	mul	r22, r18
    1166:	f0 01       	movw	r30, r0
    1168:	72 9f       	mul	r23, r18
    116a:	bb 27       	eor	r27, r27
    116c:	f0 0d       	add	r31, r0
    116e:	b1 1d       	adc	r27, r1
    1170:	63 9f       	mul	r22, r19
    1172:	aa 27       	eor	r26, r26
    1174:	f0 0d       	add	r31, r0
    1176:	b1 1d       	adc	r27, r1
    1178:	aa 1f       	adc	r26, r26
    117a:	64 9f       	mul	r22, r20
    117c:	66 27       	eor	r22, r22
    117e:	b0 0d       	add	r27, r0
    1180:	a1 1d       	adc	r26, r1
    1182:	66 1f       	adc	r22, r22
    1184:	82 9f       	mul	r24, r18
    1186:	22 27       	eor	r18, r18
    1188:	b0 0d       	add	r27, r0
    118a:	a1 1d       	adc	r26, r1
    118c:	62 1f       	adc	r22, r18
    118e:	73 9f       	mul	r23, r19
    1190:	b0 0d       	add	r27, r0
    1192:	a1 1d       	adc	r26, r1
    1194:	62 1f       	adc	r22, r18
    1196:	83 9f       	mul	r24, r19
    1198:	a0 0d       	add	r26, r0
    119a:	61 1d       	adc	r22, r1
    119c:	22 1f       	adc	r18, r18
    119e:	74 9f       	mul	r23, r20
    11a0:	33 27       	eor	r19, r19
    11a2:	a0 0d       	add	r26, r0
    11a4:	61 1d       	adc	r22, r1
    11a6:	23 1f       	adc	r18, r19
    11a8:	84 9f       	mul	r24, r20
    11aa:	60 0d       	add	r22, r0
    11ac:	21 1d       	adc	r18, r1
    11ae:	82 2f       	mov	r24, r18
    11b0:	76 2f       	mov	r23, r22
    11b2:	6a 2f       	mov	r22, r26
    11b4:	11 24       	eor	r1, r1
    11b6:	9f 57       	subi	r25, 0x7F	; 127
    11b8:	50 40       	sbci	r21, 0x00	; 0
    11ba:	8a f0       	brmi	.+34     	; 0x11de <__mulsf3_pse+0x84>
    11bc:	e1 f0       	breq	.+56     	; 0x11f6 <__mulsf3_pse+0x9c>
    11be:	88 23       	and	r24, r24
    11c0:	4a f0       	brmi	.+18     	; 0x11d4 <__mulsf3_pse+0x7a>
    11c2:	ee 0f       	add	r30, r30
    11c4:	ff 1f       	adc	r31, r31
    11c6:	bb 1f       	adc	r27, r27
    11c8:	66 1f       	adc	r22, r22
    11ca:	77 1f       	adc	r23, r23
    11cc:	88 1f       	adc	r24, r24
    11ce:	91 50       	subi	r25, 0x01	; 1
    11d0:	50 40       	sbci	r21, 0x00	; 0
    11d2:	a9 f7       	brne	.-22     	; 0x11be <__mulsf3_pse+0x64>
    11d4:	9e 3f       	cpi	r25, 0xFE	; 254
    11d6:	51 05       	cpc	r21, r1
    11d8:	70 f0       	brcs	.+28     	; 0x11f6 <__mulsf3_pse+0x9c>
    11da:	5c cf       	rjmp	.-328    	; 0x1094 <__fp_inf>
    11dc:	a6 cf       	rjmp	.-180    	; 0x112a <__fp_szero>
    11de:	5f 3f       	cpi	r21, 0xFF	; 255
    11e0:	ec f3       	brlt	.-6      	; 0x11dc <__mulsf3_pse+0x82>
    11e2:	98 3e       	cpi	r25, 0xE8	; 232
    11e4:	dc f3       	brlt	.-10     	; 0x11dc <__mulsf3_pse+0x82>
    11e6:	86 95       	lsr	r24
    11e8:	77 95       	ror	r23
    11ea:	67 95       	ror	r22
    11ec:	b7 95       	ror	r27
    11ee:	f7 95       	ror	r31
    11f0:	e7 95       	ror	r30
    11f2:	9f 5f       	subi	r25, 0xFF	; 255
    11f4:	c1 f7       	brne	.-16     	; 0x11e6 <__mulsf3_pse+0x8c>
    11f6:	fe 2b       	or	r31, r30
    11f8:	88 0f       	add	r24, r24
    11fa:	91 1d       	adc	r25, r1
    11fc:	96 95       	lsr	r25
    11fe:	87 95       	ror	r24
    1200:	97 f9       	bld	r25, 7
    1202:	08 95       	ret

00001204 <__divmodhi4>:
    1204:	97 fb       	bst	r25, 7
    1206:	07 2e       	mov	r0, r23
    1208:	16 f4       	brtc	.+4      	; 0x120e <__divmodhi4+0xa>
    120a:	00 94       	com	r0
    120c:	06 d0       	rcall	.+12     	; 0x121a <__divmodhi4_neg1>
    120e:	77 fd       	sbrc	r23, 7
    1210:	08 d0       	rcall	.+16     	; 0x1222 <__divmodhi4_neg2>
    1212:	11 d0       	rcall	.+34     	; 0x1236 <__udivmodhi4>
    1214:	07 fc       	sbrc	r0, 7
    1216:	05 d0       	rcall	.+10     	; 0x1222 <__divmodhi4_neg2>
    1218:	3e f4       	brtc	.+14     	; 0x1228 <__divmodhi4_exit>

0000121a <__divmodhi4_neg1>:
    121a:	90 95       	com	r25
    121c:	81 95       	neg	r24
    121e:	9f 4f       	sbci	r25, 0xFF	; 255
    1220:	08 95       	ret

00001222 <__divmodhi4_neg2>:
    1222:	70 95       	com	r23
    1224:	61 95       	neg	r22
    1226:	7f 4f       	sbci	r23, 0xFF	; 255

00001228 <__divmodhi4_exit>:
    1228:	08 95       	ret

0000122a <__tablejump2__>:
    122a:	ee 0f       	add	r30, r30
    122c:	ff 1f       	adc	r31, r31

0000122e <__tablejump__>:
    122e:	05 90       	lpm	r0, Z+
    1230:	f4 91       	lpm	r31, Z
    1232:	e0 2d       	mov	r30, r0
    1234:	19 94       	eijmp

00001236 <__udivmodhi4>:
    1236:	aa 1b       	sub	r26, r26
    1238:	bb 1b       	sub	r27, r27
    123a:	51 e1       	ldi	r21, 0x11	; 17
    123c:	07 c0       	rjmp	.+14     	; 0x124c <__udivmodhi4_ep>

0000123e <__udivmodhi4_loop>:
    123e:	aa 1f       	adc	r26, r26
    1240:	bb 1f       	adc	r27, r27
    1242:	a6 17       	cp	r26, r22
    1244:	b7 07       	cpc	r27, r23
    1246:	10 f0       	brcs	.+4      	; 0x124c <__udivmodhi4_ep>
    1248:	a6 1b       	sub	r26, r22
    124a:	b7 0b       	sbc	r27, r23

0000124c <__udivmodhi4_ep>:
    124c:	88 1f       	adc	r24, r24
    124e:	99 1f       	adc	r25, r25
    1250:	5a 95       	dec	r21
    1252:	a9 f7       	brne	.-22     	; 0x123e <__udivmodhi4_loop>
    1254:	80 95       	com	r24
    1256:	90 95       	com	r25
    1258:	bc 01       	movw	r22, r24
    125a:	cd 01       	movw	r24, r26
    125c:	08 95       	ret

0000125e <fdevopen>:
    125e:	0f 93       	push	r16
    1260:	1f 93       	push	r17
    1262:	cf 93       	push	r28
    1264:	df 93       	push	r29
    1266:	ec 01       	movw	r28, r24
    1268:	8b 01       	movw	r16, r22
    126a:	00 97       	sbiw	r24, 0x00	; 0
    126c:	31 f4       	brne	.+12     	; 0x127a <fdevopen+0x1c>
    126e:	61 15       	cp	r22, r1
    1270:	71 05       	cpc	r23, r1
    1272:	19 f4       	brne	.+6      	; 0x127a <fdevopen+0x1c>
    1274:	80 e0       	ldi	r24, 0x00	; 0
    1276:	90 e0       	ldi	r25, 0x00	; 0
    1278:	37 c0       	rjmp	.+110    	; 0x12e8 <fdevopen+0x8a>
    127a:	6e e0       	ldi	r22, 0x0E	; 14
    127c:	70 e0       	ldi	r23, 0x00	; 0
    127e:	81 e0       	ldi	r24, 0x01	; 1
    1280:	90 e0       	ldi	r25, 0x00	; 0
    1282:	36 d2       	rcall	.+1132   	; 0x16f0 <calloc>
    1284:	fc 01       	movw	r30, r24
    1286:	00 97       	sbiw	r24, 0x00	; 0
    1288:	a9 f3       	breq	.-22     	; 0x1274 <fdevopen+0x16>
    128a:	80 e8       	ldi	r24, 0x80	; 128
    128c:	83 83       	std	Z+3, r24	; 0x03
    128e:	01 15       	cp	r16, r1
    1290:	11 05       	cpc	r17, r1
    1292:	71 f0       	breq	.+28     	; 0x12b0 <fdevopen+0x52>
    1294:	13 87       	std	Z+11, r17	; 0x0b
    1296:	02 87       	std	Z+10, r16	; 0x0a
    1298:	81 e8       	ldi	r24, 0x81	; 129
    129a:	83 83       	std	Z+3, r24	; 0x03
    129c:	80 91 c1 02 	lds	r24, 0x02C1
    12a0:	90 91 c2 02 	lds	r25, 0x02C2
    12a4:	89 2b       	or	r24, r25
    12a6:	21 f4       	brne	.+8      	; 0x12b0 <fdevopen+0x52>
    12a8:	f0 93 c2 02 	sts	0x02C2, r31
    12ac:	e0 93 c1 02 	sts	0x02C1, r30
    12b0:	20 97       	sbiw	r28, 0x00	; 0
    12b2:	c9 f0       	breq	.+50     	; 0x12e6 <fdevopen+0x88>
    12b4:	d1 87       	std	Z+9, r29	; 0x09
    12b6:	c0 87       	std	Z+8, r28	; 0x08
    12b8:	83 81       	ldd	r24, Z+3	; 0x03
    12ba:	82 60       	ori	r24, 0x02	; 2
    12bc:	83 83       	std	Z+3, r24	; 0x03
    12be:	80 91 c3 02 	lds	r24, 0x02C3
    12c2:	90 91 c4 02 	lds	r25, 0x02C4
    12c6:	89 2b       	or	r24, r25
    12c8:	71 f4       	brne	.+28     	; 0x12e6 <fdevopen+0x88>
    12ca:	f0 93 c4 02 	sts	0x02C4, r31
    12ce:	e0 93 c3 02 	sts	0x02C3, r30
    12d2:	80 91 c5 02 	lds	r24, 0x02C5
    12d6:	90 91 c6 02 	lds	r25, 0x02C6
    12da:	89 2b       	or	r24, r25
    12dc:	21 f4       	brne	.+8      	; 0x12e6 <fdevopen+0x88>
    12de:	f0 93 c6 02 	sts	0x02C6, r31
    12e2:	e0 93 c5 02 	sts	0x02C5, r30
    12e6:	cf 01       	movw	r24, r30
    12e8:	df 91       	pop	r29
    12ea:	cf 91       	pop	r28
    12ec:	1f 91       	pop	r17
    12ee:	0f 91       	pop	r16
    12f0:	08 95       	ret

000012f2 <printf>:
    12f2:	cf 93       	push	r28
    12f4:	df 93       	push	r29
    12f6:	cd b7       	in	r28, 0x3d	; 61
    12f8:	de b7       	in	r29, 0x3e	; 62
    12fa:	fe 01       	movw	r30, r28
    12fc:	36 96       	adiw	r30, 0x06	; 6
    12fe:	61 91       	ld	r22, Z+
    1300:	71 91       	ld	r23, Z+
    1302:	af 01       	movw	r20, r30
    1304:	80 91 c3 02 	lds	r24, 0x02C3
    1308:	90 91 c4 02 	lds	r25, 0x02C4
    130c:	03 d0       	rcall	.+6      	; 0x1314 <vfprintf>
    130e:	df 91       	pop	r29
    1310:	cf 91       	pop	r28
    1312:	08 95       	ret

00001314 <vfprintf>:
    1314:	2f 92       	push	r2
    1316:	3f 92       	push	r3
    1318:	4f 92       	push	r4
    131a:	5f 92       	push	r5
    131c:	6f 92       	push	r6
    131e:	7f 92       	push	r7
    1320:	8f 92       	push	r8
    1322:	9f 92       	push	r9
    1324:	af 92       	push	r10
    1326:	bf 92       	push	r11
    1328:	cf 92       	push	r12
    132a:	df 92       	push	r13
    132c:	ef 92       	push	r14
    132e:	ff 92       	push	r15
    1330:	0f 93       	push	r16
    1332:	1f 93       	push	r17
    1334:	cf 93       	push	r28
    1336:	df 93       	push	r29
    1338:	cd b7       	in	r28, 0x3d	; 61
    133a:	de b7       	in	r29, 0x3e	; 62
    133c:	2c 97       	sbiw	r28, 0x0c	; 12
    133e:	0f b6       	in	r0, 0x3f	; 63
    1340:	f8 94       	cli
    1342:	de bf       	out	0x3e, r29	; 62
    1344:	0f be       	out	0x3f, r0	; 63
    1346:	cd bf       	out	0x3d, r28	; 61
    1348:	7c 01       	movw	r14, r24
    134a:	6b 01       	movw	r12, r22
    134c:	8a 01       	movw	r16, r20
    134e:	fc 01       	movw	r30, r24
    1350:	17 82       	std	Z+7, r1	; 0x07
    1352:	16 82       	std	Z+6, r1	; 0x06
    1354:	83 81       	ldd	r24, Z+3	; 0x03
    1356:	81 ff       	sbrs	r24, 1
    1358:	b0 c1       	rjmp	.+864    	; 0x16ba <vfprintf+0x3a6>
    135a:	ce 01       	movw	r24, r28
    135c:	01 96       	adiw	r24, 0x01	; 1
    135e:	4c 01       	movw	r8, r24
    1360:	f7 01       	movw	r30, r14
    1362:	93 81       	ldd	r25, Z+3	; 0x03
    1364:	f6 01       	movw	r30, r12
    1366:	93 fd       	sbrc	r25, 3
    1368:	85 91       	lpm	r24, Z+
    136a:	93 ff       	sbrs	r25, 3
    136c:	81 91       	ld	r24, Z+
    136e:	6f 01       	movw	r12, r30
    1370:	88 23       	and	r24, r24
    1372:	09 f4       	brne	.+2      	; 0x1376 <vfprintf+0x62>
    1374:	9e c1       	rjmp	.+828    	; 0x16b2 <vfprintf+0x39e>
    1376:	85 32       	cpi	r24, 0x25	; 37
    1378:	39 f4       	brne	.+14     	; 0x1388 <vfprintf+0x74>
    137a:	93 fd       	sbrc	r25, 3
    137c:	85 91       	lpm	r24, Z+
    137e:	93 ff       	sbrs	r25, 3
    1380:	81 91       	ld	r24, Z+
    1382:	6f 01       	movw	r12, r30
    1384:	85 32       	cpi	r24, 0x25	; 37
    1386:	21 f4       	brne	.+8      	; 0x1390 <vfprintf+0x7c>
    1388:	b7 01       	movw	r22, r14
    138a:	90 e0       	ldi	r25, 0x00	; 0
    138c:	0f d3       	rcall	.+1566   	; 0x19ac <fputc>
    138e:	e8 cf       	rjmp	.-48     	; 0x1360 <vfprintf+0x4c>
    1390:	51 2c       	mov	r5, r1
    1392:	31 2c       	mov	r3, r1
    1394:	20 e0       	ldi	r18, 0x00	; 0
    1396:	20 32       	cpi	r18, 0x20	; 32
    1398:	a0 f4       	brcc	.+40     	; 0x13c2 <vfprintf+0xae>
    139a:	8b 32       	cpi	r24, 0x2B	; 43
    139c:	69 f0       	breq	.+26     	; 0x13b8 <vfprintf+0xa4>
    139e:	30 f4       	brcc	.+12     	; 0x13ac <vfprintf+0x98>
    13a0:	80 32       	cpi	r24, 0x20	; 32
    13a2:	59 f0       	breq	.+22     	; 0x13ba <vfprintf+0xa6>
    13a4:	83 32       	cpi	r24, 0x23	; 35
    13a6:	69 f4       	brne	.+26     	; 0x13c2 <vfprintf+0xae>
    13a8:	20 61       	ori	r18, 0x10	; 16
    13aa:	2c c0       	rjmp	.+88     	; 0x1404 <vfprintf+0xf0>
    13ac:	8d 32       	cpi	r24, 0x2D	; 45
    13ae:	39 f0       	breq	.+14     	; 0x13be <vfprintf+0xaa>
    13b0:	80 33       	cpi	r24, 0x30	; 48
    13b2:	39 f4       	brne	.+14     	; 0x13c2 <vfprintf+0xae>
    13b4:	21 60       	ori	r18, 0x01	; 1
    13b6:	26 c0       	rjmp	.+76     	; 0x1404 <vfprintf+0xf0>
    13b8:	22 60       	ori	r18, 0x02	; 2
    13ba:	24 60       	ori	r18, 0x04	; 4
    13bc:	23 c0       	rjmp	.+70     	; 0x1404 <vfprintf+0xf0>
    13be:	28 60       	ori	r18, 0x08	; 8
    13c0:	21 c0       	rjmp	.+66     	; 0x1404 <vfprintf+0xf0>
    13c2:	27 fd       	sbrc	r18, 7
    13c4:	27 c0       	rjmp	.+78     	; 0x1414 <vfprintf+0x100>
    13c6:	30 ed       	ldi	r19, 0xD0	; 208
    13c8:	38 0f       	add	r19, r24
    13ca:	3a 30       	cpi	r19, 0x0A	; 10
    13cc:	78 f4       	brcc	.+30     	; 0x13ec <vfprintf+0xd8>
    13ce:	26 ff       	sbrs	r18, 6
    13d0:	06 c0       	rjmp	.+12     	; 0x13de <vfprintf+0xca>
    13d2:	fa e0       	ldi	r31, 0x0A	; 10
    13d4:	5f 9e       	mul	r5, r31
    13d6:	30 0d       	add	r19, r0
    13d8:	11 24       	eor	r1, r1
    13da:	53 2e       	mov	r5, r19
    13dc:	13 c0       	rjmp	.+38     	; 0x1404 <vfprintf+0xf0>
    13de:	8a e0       	ldi	r24, 0x0A	; 10
    13e0:	38 9e       	mul	r3, r24
    13e2:	30 0d       	add	r19, r0
    13e4:	11 24       	eor	r1, r1
    13e6:	33 2e       	mov	r3, r19
    13e8:	20 62       	ori	r18, 0x20	; 32
    13ea:	0c c0       	rjmp	.+24     	; 0x1404 <vfprintf+0xf0>
    13ec:	8e 32       	cpi	r24, 0x2E	; 46
    13ee:	21 f4       	brne	.+8      	; 0x13f8 <vfprintf+0xe4>
    13f0:	26 fd       	sbrc	r18, 6
    13f2:	5f c1       	rjmp	.+702    	; 0x16b2 <vfprintf+0x39e>
    13f4:	20 64       	ori	r18, 0x40	; 64
    13f6:	06 c0       	rjmp	.+12     	; 0x1404 <vfprintf+0xf0>
    13f8:	8c 36       	cpi	r24, 0x6C	; 108
    13fa:	11 f4       	brne	.+4      	; 0x1400 <vfprintf+0xec>
    13fc:	20 68       	ori	r18, 0x80	; 128
    13fe:	02 c0       	rjmp	.+4      	; 0x1404 <vfprintf+0xf0>
    1400:	88 36       	cpi	r24, 0x68	; 104
    1402:	41 f4       	brne	.+16     	; 0x1414 <vfprintf+0x100>
    1404:	f6 01       	movw	r30, r12
    1406:	93 fd       	sbrc	r25, 3
    1408:	85 91       	lpm	r24, Z+
    140a:	93 ff       	sbrs	r25, 3
    140c:	81 91       	ld	r24, Z+
    140e:	6f 01       	movw	r12, r30
    1410:	81 11       	cpse	r24, r1
    1412:	c1 cf       	rjmp	.-126    	; 0x1396 <vfprintf+0x82>
    1414:	98 2f       	mov	r25, r24
    1416:	9f 7d       	andi	r25, 0xDF	; 223
    1418:	95 54       	subi	r25, 0x45	; 69
    141a:	93 30       	cpi	r25, 0x03	; 3
    141c:	28 f4       	brcc	.+10     	; 0x1428 <vfprintf+0x114>
    141e:	0c 5f       	subi	r16, 0xFC	; 252
    1420:	1f 4f       	sbci	r17, 0xFF	; 255
    1422:	ff e3       	ldi	r31, 0x3F	; 63
    1424:	f9 83       	std	Y+1, r31	; 0x01
    1426:	0d c0       	rjmp	.+26     	; 0x1442 <vfprintf+0x12e>
    1428:	83 36       	cpi	r24, 0x63	; 99
    142a:	31 f0       	breq	.+12     	; 0x1438 <vfprintf+0x124>
    142c:	83 37       	cpi	r24, 0x73	; 115
    142e:	71 f0       	breq	.+28     	; 0x144c <vfprintf+0x138>
    1430:	83 35       	cpi	r24, 0x53	; 83
    1432:	09 f0       	breq	.+2      	; 0x1436 <vfprintf+0x122>
    1434:	57 c0       	rjmp	.+174    	; 0x14e4 <vfprintf+0x1d0>
    1436:	21 c0       	rjmp	.+66     	; 0x147a <vfprintf+0x166>
    1438:	f8 01       	movw	r30, r16
    143a:	80 81       	ld	r24, Z
    143c:	89 83       	std	Y+1, r24	; 0x01
    143e:	0e 5f       	subi	r16, 0xFE	; 254
    1440:	1f 4f       	sbci	r17, 0xFF	; 255
    1442:	44 24       	eor	r4, r4
    1444:	43 94       	inc	r4
    1446:	51 2c       	mov	r5, r1
    1448:	54 01       	movw	r10, r8
    144a:	14 c0       	rjmp	.+40     	; 0x1474 <vfprintf+0x160>
    144c:	38 01       	movw	r6, r16
    144e:	f2 e0       	ldi	r31, 0x02	; 2
    1450:	6f 0e       	add	r6, r31
    1452:	71 1c       	adc	r7, r1
    1454:	f8 01       	movw	r30, r16
    1456:	a0 80       	ld	r10, Z
    1458:	b1 80       	ldd	r11, Z+1	; 0x01
    145a:	26 ff       	sbrs	r18, 6
    145c:	03 c0       	rjmp	.+6      	; 0x1464 <vfprintf+0x150>
    145e:	65 2d       	mov	r22, r5
    1460:	70 e0       	ldi	r23, 0x00	; 0
    1462:	02 c0       	rjmp	.+4      	; 0x1468 <vfprintf+0x154>
    1464:	6f ef       	ldi	r22, 0xFF	; 255
    1466:	7f ef       	ldi	r23, 0xFF	; 255
    1468:	c5 01       	movw	r24, r10
    146a:	2c 87       	std	Y+12, r18	; 0x0c
    146c:	94 d2       	rcall	.+1320   	; 0x1996 <strnlen>
    146e:	2c 01       	movw	r4, r24
    1470:	83 01       	movw	r16, r6
    1472:	2c 85       	ldd	r18, Y+12	; 0x0c
    1474:	2f 77       	andi	r18, 0x7F	; 127
    1476:	22 2e       	mov	r2, r18
    1478:	16 c0       	rjmp	.+44     	; 0x14a6 <vfprintf+0x192>
    147a:	38 01       	movw	r6, r16
    147c:	f2 e0       	ldi	r31, 0x02	; 2
    147e:	6f 0e       	add	r6, r31
    1480:	71 1c       	adc	r7, r1
    1482:	f8 01       	movw	r30, r16
    1484:	a0 80       	ld	r10, Z
    1486:	b1 80       	ldd	r11, Z+1	; 0x01
    1488:	26 ff       	sbrs	r18, 6
    148a:	03 c0       	rjmp	.+6      	; 0x1492 <vfprintf+0x17e>
    148c:	65 2d       	mov	r22, r5
    148e:	70 e0       	ldi	r23, 0x00	; 0
    1490:	02 c0       	rjmp	.+4      	; 0x1496 <vfprintf+0x182>
    1492:	6f ef       	ldi	r22, 0xFF	; 255
    1494:	7f ef       	ldi	r23, 0xFF	; 255
    1496:	c5 01       	movw	r24, r10
    1498:	2c 87       	std	Y+12, r18	; 0x0c
    149a:	6b d2       	rcall	.+1238   	; 0x1972 <strnlen_P>
    149c:	2c 01       	movw	r4, r24
    149e:	2c 85       	ldd	r18, Y+12	; 0x0c
    14a0:	20 68       	ori	r18, 0x80	; 128
    14a2:	22 2e       	mov	r2, r18
    14a4:	83 01       	movw	r16, r6
    14a6:	23 fc       	sbrc	r2, 3
    14a8:	19 c0       	rjmp	.+50     	; 0x14dc <vfprintf+0x1c8>
    14aa:	83 2d       	mov	r24, r3
    14ac:	90 e0       	ldi	r25, 0x00	; 0
    14ae:	48 16       	cp	r4, r24
    14b0:	59 06       	cpc	r5, r25
    14b2:	a0 f4       	brcc	.+40     	; 0x14dc <vfprintf+0x1c8>
    14b4:	b7 01       	movw	r22, r14
    14b6:	80 e2       	ldi	r24, 0x20	; 32
    14b8:	90 e0       	ldi	r25, 0x00	; 0
    14ba:	78 d2       	rcall	.+1264   	; 0x19ac <fputc>
    14bc:	3a 94       	dec	r3
    14be:	f5 cf       	rjmp	.-22     	; 0x14aa <vfprintf+0x196>
    14c0:	f5 01       	movw	r30, r10
    14c2:	27 fc       	sbrc	r2, 7
    14c4:	85 91       	lpm	r24, Z+
    14c6:	27 fe       	sbrs	r2, 7
    14c8:	81 91       	ld	r24, Z+
    14ca:	5f 01       	movw	r10, r30
    14cc:	b7 01       	movw	r22, r14
    14ce:	90 e0       	ldi	r25, 0x00	; 0
    14d0:	6d d2       	rcall	.+1242   	; 0x19ac <fputc>
    14d2:	31 10       	cpse	r3, r1
    14d4:	3a 94       	dec	r3
    14d6:	f1 e0       	ldi	r31, 0x01	; 1
    14d8:	4f 1a       	sub	r4, r31
    14da:	51 08       	sbc	r5, r1
    14dc:	41 14       	cp	r4, r1
    14de:	51 04       	cpc	r5, r1
    14e0:	79 f7       	brne	.-34     	; 0x14c0 <vfprintf+0x1ac>
    14e2:	de c0       	rjmp	.+444    	; 0x16a0 <vfprintf+0x38c>
    14e4:	84 36       	cpi	r24, 0x64	; 100
    14e6:	11 f0       	breq	.+4      	; 0x14ec <vfprintf+0x1d8>
    14e8:	89 36       	cpi	r24, 0x69	; 105
    14ea:	31 f5       	brne	.+76     	; 0x1538 <vfprintf+0x224>
    14ec:	f8 01       	movw	r30, r16
    14ee:	27 ff       	sbrs	r18, 7
    14f0:	07 c0       	rjmp	.+14     	; 0x1500 <vfprintf+0x1ec>
    14f2:	60 81       	ld	r22, Z
    14f4:	71 81       	ldd	r23, Z+1	; 0x01
    14f6:	82 81       	ldd	r24, Z+2	; 0x02
    14f8:	93 81       	ldd	r25, Z+3	; 0x03
    14fa:	0c 5f       	subi	r16, 0xFC	; 252
    14fc:	1f 4f       	sbci	r17, 0xFF	; 255
    14fe:	08 c0       	rjmp	.+16     	; 0x1510 <vfprintf+0x1fc>
    1500:	60 81       	ld	r22, Z
    1502:	71 81       	ldd	r23, Z+1	; 0x01
    1504:	88 27       	eor	r24, r24
    1506:	77 fd       	sbrc	r23, 7
    1508:	80 95       	com	r24
    150a:	98 2f       	mov	r25, r24
    150c:	0e 5f       	subi	r16, 0xFE	; 254
    150e:	1f 4f       	sbci	r17, 0xFF	; 255
    1510:	2f 76       	andi	r18, 0x6F	; 111
    1512:	b2 2e       	mov	r11, r18
    1514:	97 ff       	sbrs	r25, 7
    1516:	09 c0       	rjmp	.+18     	; 0x152a <vfprintf+0x216>
    1518:	90 95       	com	r25
    151a:	80 95       	com	r24
    151c:	70 95       	com	r23
    151e:	61 95       	neg	r22
    1520:	7f 4f       	sbci	r23, 0xFF	; 255
    1522:	8f 4f       	sbci	r24, 0xFF	; 255
    1524:	9f 4f       	sbci	r25, 0xFF	; 255
    1526:	20 68       	ori	r18, 0x80	; 128
    1528:	b2 2e       	mov	r11, r18
    152a:	2a e0       	ldi	r18, 0x0A	; 10
    152c:	30 e0       	ldi	r19, 0x00	; 0
    152e:	a4 01       	movw	r20, r8
    1530:	6f d2       	rcall	.+1246   	; 0x1a10 <__ultoa_invert>
    1532:	a8 2e       	mov	r10, r24
    1534:	a8 18       	sub	r10, r8
    1536:	43 c0       	rjmp	.+134    	; 0x15be <vfprintf+0x2aa>
    1538:	85 37       	cpi	r24, 0x75	; 117
    153a:	29 f4       	brne	.+10     	; 0x1546 <vfprintf+0x232>
    153c:	2f 7e       	andi	r18, 0xEF	; 239
    153e:	b2 2e       	mov	r11, r18
    1540:	2a e0       	ldi	r18, 0x0A	; 10
    1542:	30 e0       	ldi	r19, 0x00	; 0
    1544:	25 c0       	rjmp	.+74     	; 0x1590 <vfprintf+0x27c>
    1546:	f2 2f       	mov	r31, r18
    1548:	f9 7f       	andi	r31, 0xF9	; 249
    154a:	bf 2e       	mov	r11, r31
    154c:	8f 36       	cpi	r24, 0x6F	; 111
    154e:	c1 f0       	breq	.+48     	; 0x1580 <vfprintf+0x26c>
    1550:	18 f4       	brcc	.+6      	; 0x1558 <vfprintf+0x244>
    1552:	88 35       	cpi	r24, 0x58	; 88
    1554:	79 f0       	breq	.+30     	; 0x1574 <vfprintf+0x260>
    1556:	ad c0       	rjmp	.+346    	; 0x16b2 <vfprintf+0x39e>
    1558:	80 37       	cpi	r24, 0x70	; 112
    155a:	19 f0       	breq	.+6      	; 0x1562 <vfprintf+0x24e>
    155c:	88 37       	cpi	r24, 0x78	; 120
    155e:	21 f0       	breq	.+8      	; 0x1568 <vfprintf+0x254>
    1560:	a8 c0       	rjmp	.+336    	; 0x16b2 <vfprintf+0x39e>
    1562:	2f 2f       	mov	r18, r31
    1564:	20 61       	ori	r18, 0x10	; 16
    1566:	b2 2e       	mov	r11, r18
    1568:	b4 fe       	sbrs	r11, 4
    156a:	0d c0       	rjmp	.+26     	; 0x1586 <vfprintf+0x272>
    156c:	8b 2d       	mov	r24, r11
    156e:	84 60       	ori	r24, 0x04	; 4
    1570:	b8 2e       	mov	r11, r24
    1572:	09 c0       	rjmp	.+18     	; 0x1586 <vfprintf+0x272>
    1574:	24 ff       	sbrs	r18, 4
    1576:	0a c0       	rjmp	.+20     	; 0x158c <vfprintf+0x278>
    1578:	9f 2f       	mov	r25, r31
    157a:	96 60       	ori	r25, 0x06	; 6
    157c:	b9 2e       	mov	r11, r25
    157e:	06 c0       	rjmp	.+12     	; 0x158c <vfprintf+0x278>
    1580:	28 e0       	ldi	r18, 0x08	; 8
    1582:	30 e0       	ldi	r19, 0x00	; 0
    1584:	05 c0       	rjmp	.+10     	; 0x1590 <vfprintf+0x27c>
    1586:	20 e1       	ldi	r18, 0x10	; 16
    1588:	30 e0       	ldi	r19, 0x00	; 0
    158a:	02 c0       	rjmp	.+4      	; 0x1590 <vfprintf+0x27c>
    158c:	20 e1       	ldi	r18, 0x10	; 16
    158e:	32 e0       	ldi	r19, 0x02	; 2
    1590:	f8 01       	movw	r30, r16
    1592:	b7 fe       	sbrs	r11, 7
    1594:	07 c0       	rjmp	.+14     	; 0x15a4 <vfprintf+0x290>
    1596:	60 81       	ld	r22, Z
    1598:	71 81       	ldd	r23, Z+1	; 0x01
    159a:	82 81       	ldd	r24, Z+2	; 0x02
    159c:	93 81       	ldd	r25, Z+3	; 0x03
    159e:	0c 5f       	subi	r16, 0xFC	; 252
    15a0:	1f 4f       	sbci	r17, 0xFF	; 255
    15a2:	06 c0       	rjmp	.+12     	; 0x15b0 <vfprintf+0x29c>
    15a4:	60 81       	ld	r22, Z
    15a6:	71 81       	ldd	r23, Z+1	; 0x01
    15a8:	80 e0       	ldi	r24, 0x00	; 0
    15aa:	90 e0       	ldi	r25, 0x00	; 0
    15ac:	0e 5f       	subi	r16, 0xFE	; 254
    15ae:	1f 4f       	sbci	r17, 0xFF	; 255
    15b0:	a4 01       	movw	r20, r8
    15b2:	2e d2       	rcall	.+1116   	; 0x1a10 <__ultoa_invert>
    15b4:	a8 2e       	mov	r10, r24
    15b6:	a8 18       	sub	r10, r8
    15b8:	fb 2d       	mov	r31, r11
    15ba:	ff 77       	andi	r31, 0x7F	; 127
    15bc:	bf 2e       	mov	r11, r31
    15be:	b6 fe       	sbrs	r11, 6
    15c0:	0b c0       	rjmp	.+22     	; 0x15d8 <vfprintf+0x2c4>
    15c2:	2b 2d       	mov	r18, r11
    15c4:	2e 7f       	andi	r18, 0xFE	; 254
    15c6:	a5 14       	cp	r10, r5
    15c8:	50 f4       	brcc	.+20     	; 0x15de <vfprintf+0x2ca>
    15ca:	b4 fe       	sbrs	r11, 4
    15cc:	0a c0       	rjmp	.+20     	; 0x15e2 <vfprintf+0x2ce>
    15ce:	b2 fc       	sbrc	r11, 2
    15d0:	08 c0       	rjmp	.+16     	; 0x15e2 <vfprintf+0x2ce>
    15d2:	2b 2d       	mov	r18, r11
    15d4:	2e 7e       	andi	r18, 0xEE	; 238
    15d6:	05 c0       	rjmp	.+10     	; 0x15e2 <vfprintf+0x2ce>
    15d8:	7a 2c       	mov	r7, r10
    15da:	2b 2d       	mov	r18, r11
    15dc:	03 c0       	rjmp	.+6      	; 0x15e4 <vfprintf+0x2d0>
    15de:	7a 2c       	mov	r7, r10
    15e0:	01 c0       	rjmp	.+2      	; 0x15e4 <vfprintf+0x2d0>
    15e2:	75 2c       	mov	r7, r5
    15e4:	24 ff       	sbrs	r18, 4
    15e6:	0d c0       	rjmp	.+26     	; 0x1602 <vfprintf+0x2ee>
    15e8:	fe 01       	movw	r30, r28
    15ea:	ea 0d       	add	r30, r10
    15ec:	f1 1d       	adc	r31, r1
    15ee:	80 81       	ld	r24, Z
    15f0:	80 33       	cpi	r24, 0x30	; 48
    15f2:	11 f4       	brne	.+4      	; 0x15f8 <vfprintf+0x2e4>
    15f4:	29 7e       	andi	r18, 0xE9	; 233
    15f6:	09 c0       	rjmp	.+18     	; 0x160a <vfprintf+0x2f6>
    15f8:	22 ff       	sbrs	r18, 2
    15fa:	06 c0       	rjmp	.+12     	; 0x1608 <vfprintf+0x2f4>
    15fc:	73 94       	inc	r7
    15fe:	73 94       	inc	r7
    1600:	04 c0       	rjmp	.+8      	; 0x160a <vfprintf+0x2f6>
    1602:	82 2f       	mov	r24, r18
    1604:	86 78       	andi	r24, 0x86	; 134
    1606:	09 f0       	breq	.+2      	; 0x160a <vfprintf+0x2f6>
    1608:	73 94       	inc	r7
    160a:	23 fd       	sbrc	r18, 3
    160c:	12 c0       	rjmp	.+36     	; 0x1632 <vfprintf+0x31e>
    160e:	20 ff       	sbrs	r18, 0
    1610:	06 c0       	rjmp	.+12     	; 0x161e <vfprintf+0x30a>
    1612:	5a 2c       	mov	r5, r10
    1614:	73 14       	cp	r7, r3
    1616:	18 f4       	brcc	.+6      	; 0x161e <vfprintf+0x30a>
    1618:	53 0c       	add	r5, r3
    161a:	57 18       	sub	r5, r7
    161c:	73 2c       	mov	r7, r3
    161e:	73 14       	cp	r7, r3
    1620:	60 f4       	brcc	.+24     	; 0x163a <vfprintf+0x326>
    1622:	b7 01       	movw	r22, r14
    1624:	80 e2       	ldi	r24, 0x20	; 32
    1626:	90 e0       	ldi	r25, 0x00	; 0
    1628:	2c 87       	std	Y+12, r18	; 0x0c
    162a:	c0 d1       	rcall	.+896    	; 0x19ac <fputc>
    162c:	73 94       	inc	r7
    162e:	2c 85       	ldd	r18, Y+12	; 0x0c
    1630:	f6 cf       	rjmp	.-20     	; 0x161e <vfprintf+0x30a>
    1632:	73 14       	cp	r7, r3
    1634:	10 f4       	brcc	.+4      	; 0x163a <vfprintf+0x326>
    1636:	37 18       	sub	r3, r7
    1638:	01 c0       	rjmp	.+2      	; 0x163c <vfprintf+0x328>
    163a:	31 2c       	mov	r3, r1
    163c:	24 ff       	sbrs	r18, 4
    163e:	11 c0       	rjmp	.+34     	; 0x1662 <vfprintf+0x34e>
    1640:	b7 01       	movw	r22, r14
    1642:	80 e3       	ldi	r24, 0x30	; 48
    1644:	90 e0       	ldi	r25, 0x00	; 0
    1646:	2c 87       	std	Y+12, r18	; 0x0c
    1648:	b1 d1       	rcall	.+866    	; 0x19ac <fputc>
    164a:	2c 85       	ldd	r18, Y+12	; 0x0c
    164c:	22 ff       	sbrs	r18, 2
    164e:	16 c0       	rjmp	.+44     	; 0x167c <vfprintf+0x368>
    1650:	21 ff       	sbrs	r18, 1
    1652:	03 c0       	rjmp	.+6      	; 0x165a <vfprintf+0x346>
    1654:	88 e5       	ldi	r24, 0x58	; 88
    1656:	90 e0       	ldi	r25, 0x00	; 0
    1658:	02 c0       	rjmp	.+4      	; 0x165e <vfprintf+0x34a>
    165a:	88 e7       	ldi	r24, 0x78	; 120
    165c:	90 e0       	ldi	r25, 0x00	; 0
    165e:	b7 01       	movw	r22, r14
    1660:	0c c0       	rjmp	.+24     	; 0x167a <vfprintf+0x366>
    1662:	82 2f       	mov	r24, r18
    1664:	86 78       	andi	r24, 0x86	; 134
    1666:	51 f0       	breq	.+20     	; 0x167c <vfprintf+0x368>
    1668:	21 fd       	sbrc	r18, 1
    166a:	02 c0       	rjmp	.+4      	; 0x1670 <vfprintf+0x35c>
    166c:	80 e2       	ldi	r24, 0x20	; 32
    166e:	01 c0       	rjmp	.+2      	; 0x1672 <vfprintf+0x35e>
    1670:	8b e2       	ldi	r24, 0x2B	; 43
    1672:	27 fd       	sbrc	r18, 7
    1674:	8d e2       	ldi	r24, 0x2D	; 45
    1676:	b7 01       	movw	r22, r14
    1678:	90 e0       	ldi	r25, 0x00	; 0
    167a:	98 d1       	rcall	.+816    	; 0x19ac <fputc>
    167c:	a5 14       	cp	r10, r5
    167e:	30 f4       	brcc	.+12     	; 0x168c <vfprintf+0x378>
    1680:	b7 01       	movw	r22, r14
    1682:	80 e3       	ldi	r24, 0x30	; 48
    1684:	90 e0       	ldi	r25, 0x00	; 0
    1686:	92 d1       	rcall	.+804    	; 0x19ac <fputc>
    1688:	5a 94       	dec	r5
    168a:	f8 cf       	rjmp	.-16     	; 0x167c <vfprintf+0x368>
    168c:	aa 94       	dec	r10
    168e:	f4 01       	movw	r30, r8
    1690:	ea 0d       	add	r30, r10
    1692:	f1 1d       	adc	r31, r1
    1694:	80 81       	ld	r24, Z
    1696:	b7 01       	movw	r22, r14
    1698:	90 e0       	ldi	r25, 0x00	; 0
    169a:	88 d1       	rcall	.+784    	; 0x19ac <fputc>
    169c:	a1 10       	cpse	r10, r1
    169e:	f6 cf       	rjmp	.-20     	; 0x168c <vfprintf+0x378>
    16a0:	33 20       	and	r3, r3
    16a2:	09 f4       	brne	.+2      	; 0x16a6 <vfprintf+0x392>
    16a4:	5d ce       	rjmp	.-838    	; 0x1360 <vfprintf+0x4c>
    16a6:	b7 01       	movw	r22, r14
    16a8:	80 e2       	ldi	r24, 0x20	; 32
    16aa:	90 e0       	ldi	r25, 0x00	; 0
    16ac:	7f d1       	rcall	.+766    	; 0x19ac <fputc>
    16ae:	3a 94       	dec	r3
    16b0:	f7 cf       	rjmp	.-18     	; 0x16a0 <vfprintf+0x38c>
    16b2:	f7 01       	movw	r30, r14
    16b4:	86 81       	ldd	r24, Z+6	; 0x06
    16b6:	97 81       	ldd	r25, Z+7	; 0x07
    16b8:	02 c0       	rjmp	.+4      	; 0x16be <vfprintf+0x3aa>
    16ba:	8f ef       	ldi	r24, 0xFF	; 255
    16bc:	9f ef       	ldi	r25, 0xFF	; 255
    16be:	2c 96       	adiw	r28, 0x0c	; 12
    16c0:	0f b6       	in	r0, 0x3f	; 63
    16c2:	f8 94       	cli
    16c4:	de bf       	out	0x3e, r29	; 62
    16c6:	0f be       	out	0x3f, r0	; 63
    16c8:	cd bf       	out	0x3d, r28	; 61
    16ca:	df 91       	pop	r29
    16cc:	cf 91       	pop	r28
    16ce:	1f 91       	pop	r17
    16d0:	0f 91       	pop	r16
    16d2:	ff 90       	pop	r15
    16d4:	ef 90       	pop	r14
    16d6:	df 90       	pop	r13
    16d8:	cf 90       	pop	r12
    16da:	bf 90       	pop	r11
    16dc:	af 90       	pop	r10
    16de:	9f 90       	pop	r9
    16e0:	8f 90       	pop	r8
    16e2:	7f 90       	pop	r7
    16e4:	6f 90       	pop	r6
    16e6:	5f 90       	pop	r5
    16e8:	4f 90       	pop	r4
    16ea:	3f 90       	pop	r3
    16ec:	2f 90       	pop	r2
    16ee:	08 95       	ret

000016f0 <calloc>:
    16f0:	0f 93       	push	r16
    16f2:	1f 93       	push	r17
    16f4:	cf 93       	push	r28
    16f6:	df 93       	push	r29
    16f8:	86 9f       	mul	r24, r22
    16fa:	80 01       	movw	r16, r0
    16fc:	87 9f       	mul	r24, r23
    16fe:	10 0d       	add	r17, r0
    1700:	96 9f       	mul	r25, r22
    1702:	10 0d       	add	r17, r0
    1704:	11 24       	eor	r1, r1
    1706:	c8 01       	movw	r24, r16
    1708:	0d d0       	rcall	.+26     	; 0x1724 <malloc>
    170a:	ec 01       	movw	r28, r24
    170c:	00 97       	sbiw	r24, 0x00	; 0
    170e:	21 f0       	breq	.+8      	; 0x1718 <calloc+0x28>
    1710:	a8 01       	movw	r20, r16
    1712:	60 e0       	ldi	r22, 0x00	; 0
    1714:	70 e0       	ldi	r23, 0x00	; 0
    1716:	38 d1       	rcall	.+624    	; 0x1988 <memset>
    1718:	ce 01       	movw	r24, r28
    171a:	df 91       	pop	r29
    171c:	cf 91       	pop	r28
    171e:	1f 91       	pop	r17
    1720:	0f 91       	pop	r16
    1722:	08 95       	ret

00001724 <malloc>:
    1724:	cf 93       	push	r28
    1726:	df 93       	push	r29
    1728:	82 30       	cpi	r24, 0x02	; 2
    172a:	91 05       	cpc	r25, r1
    172c:	10 f4       	brcc	.+4      	; 0x1732 <malloc+0xe>
    172e:	82 e0       	ldi	r24, 0x02	; 2
    1730:	90 e0       	ldi	r25, 0x00	; 0
    1732:	e0 91 c9 02 	lds	r30, 0x02C9
    1736:	f0 91 ca 02 	lds	r31, 0x02CA
    173a:	20 e0       	ldi	r18, 0x00	; 0
    173c:	30 e0       	ldi	r19, 0x00	; 0
    173e:	a0 e0       	ldi	r26, 0x00	; 0
    1740:	b0 e0       	ldi	r27, 0x00	; 0
    1742:	30 97       	sbiw	r30, 0x00	; 0
    1744:	39 f1       	breq	.+78     	; 0x1794 <malloc+0x70>
    1746:	40 81       	ld	r20, Z
    1748:	51 81       	ldd	r21, Z+1	; 0x01
    174a:	48 17       	cp	r20, r24
    174c:	59 07       	cpc	r21, r25
    174e:	b8 f0       	brcs	.+46     	; 0x177e <malloc+0x5a>
    1750:	48 17       	cp	r20, r24
    1752:	59 07       	cpc	r21, r25
    1754:	71 f4       	brne	.+28     	; 0x1772 <malloc+0x4e>
    1756:	82 81       	ldd	r24, Z+2	; 0x02
    1758:	93 81       	ldd	r25, Z+3	; 0x03
    175a:	10 97       	sbiw	r26, 0x00	; 0
    175c:	29 f0       	breq	.+10     	; 0x1768 <malloc+0x44>
    175e:	13 96       	adiw	r26, 0x03	; 3
    1760:	9c 93       	st	X, r25
    1762:	8e 93       	st	-X, r24
    1764:	12 97       	sbiw	r26, 0x02	; 2
    1766:	2c c0       	rjmp	.+88     	; 0x17c0 <malloc+0x9c>
    1768:	90 93 ca 02 	sts	0x02CA, r25
    176c:	80 93 c9 02 	sts	0x02C9, r24
    1770:	27 c0       	rjmp	.+78     	; 0x17c0 <malloc+0x9c>
    1772:	21 15       	cp	r18, r1
    1774:	31 05       	cpc	r19, r1
    1776:	31 f0       	breq	.+12     	; 0x1784 <malloc+0x60>
    1778:	42 17       	cp	r20, r18
    177a:	53 07       	cpc	r21, r19
    177c:	18 f0       	brcs	.+6      	; 0x1784 <malloc+0x60>
    177e:	a9 01       	movw	r20, r18
    1780:	db 01       	movw	r26, r22
    1782:	01 c0       	rjmp	.+2      	; 0x1786 <malloc+0x62>
    1784:	ef 01       	movw	r28, r30
    1786:	9a 01       	movw	r18, r20
    1788:	bd 01       	movw	r22, r26
    178a:	df 01       	movw	r26, r30
    178c:	02 80       	ldd	r0, Z+2	; 0x02
    178e:	f3 81       	ldd	r31, Z+3	; 0x03
    1790:	e0 2d       	mov	r30, r0
    1792:	d7 cf       	rjmp	.-82     	; 0x1742 <malloc+0x1e>
    1794:	21 15       	cp	r18, r1
    1796:	31 05       	cpc	r19, r1
    1798:	f9 f0       	breq	.+62     	; 0x17d8 <malloc+0xb4>
    179a:	28 1b       	sub	r18, r24
    179c:	39 0b       	sbc	r19, r25
    179e:	24 30       	cpi	r18, 0x04	; 4
    17a0:	31 05       	cpc	r19, r1
    17a2:	80 f4       	brcc	.+32     	; 0x17c4 <malloc+0xa0>
    17a4:	8a 81       	ldd	r24, Y+2	; 0x02
    17a6:	9b 81       	ldd	r25, Y+3	; 0x03
    17a8:	61 15       	cp	r22, r1
    17aa:	71 05       	cpc	r23, r1
    17ac:	21 f0       	breq	.+8      	; 0x17b6 <malloc+0x92>
    17ae:	fb 01       	movw	r30, r22
    17b0:	93 83       	std	Z+3, r25	; 0x03
    17b2:	82 83       	std	Z+2, r24	; 0x02
    17b4:	04 c0       	rjmp	.+8      	; 0x17be <malloc+0x9a>
    17b6:	90 93 ca 02 	sts	0x02CA, r25
    17ba:	80 93 c9 02 	sts	0x02C9, r24
    17be:	fe 01       	movw	r30, r28
    17c0:	32 96       	adiw	r30, 0x02	; 2
    17c2:	44 c0       	rjmp	.+136    	; 0x184c <malloc+0x128>
    17c4:	fe 01       	movw	r30, r28
    17c6:	e2 0f       	add	r30, r18
    17c8:	f3 1f       	adc	r31, r19
    17ca:	81 93       	st	Z+, r24
    17cc:	91 93       	st	Z+, r25
    17ce:	22 50       	subi	r18, 0x02	; 2
    17d0:	31 09       	sbc	r19, r1
    17d2:	39 83       	std	Y+1, r19	; 0x01
    17d4:	28 83       	st	Y, r18
    17d6:	3a c0       	rjmp	.+116    	; 0x184c <malloc+0x128>
    17d8:	20 91 c7 02 	lds	r18, 0x02C7
    17dc:	30 91 c8 02 	lds	r19, 0x02C8
    17e0:	23 2b       	or	r18, r19
    17e2:	41 f4       	brne	.+16     	; 0x17f4 <malloc+0xd0>
    17e4:	20 91 02 02 	lds	r18, 0x0202
    17e8:	30 91 03 02 	lds	r19, 0x0203
    17ec:	30 93 c8 02 	sts	0x02C8, r19
    17f0:	20 93 c7 02 	sts	0x02C7, r18
    17f4:	20 91 00 02 	lds	r18, 0x0200
    17f8:	30 91 01 02 	lds	r19, 0x0201
    17fc:	21 15       	cp	r18, r1
    17fe:	31 05       	cpc	r19, r1
    1800:	41 f4       	brne	.+16     	; 0x1812 <malloc+0xee>
    1802:	2d b7       	in	r18, 0x3d	; 61
    1804:	3e b7       	in	r19, 0x3e	; 62
    1806:	40 91 04 02 	lds	r20, 0x0204
    180a:	50 91 05 02 	lds	r21, 0x0205
    180e:	24 1b       	sub	r18, r20
    1810:	35 0b       	sbc	r19, r21
    1812:	e0 91 c7 02 	lds	r30, 0x02C7
    1816:	f0 91 c8 02 	lds	r31, 0x02C8
    181a:	e2 17       	cp	r30, r18
    181c:	f3 07       	cpc	r31, r19
    181e:	a0 f4       	brcc	.+40     	; 0x1848 <malloc+0x124>
    1820:	2e 1b       	sub	r18, r30
    1822:	3f 0b       	sbc	r19, r31
    1824:	28 17       	cp	r18, r24
    1826:	39 07       	cpc	r19, r25
    1828:	78 f0       	brcs	.+30     	; 0x1848 <malloc+0x124>
    182a:	ac 01       	movw	r20, r24
    182c:	4e 5f       	subi	r20, 0xFE	; 254
    182e:	5f 4f       	sbci	r21, 0xFF	; 255
    1830:	24 17       	cp	r18, r20
    1832:	35 07       	cpc	r19, r21
    1834:	48 f0       	brcs	.+18     	; 0x1848 <malloc+0x124>
    1836:	4e 0f       	add	r20, r30
    1838:	5f 1f       	adc	r21, r31
    183a:	50 93 c8 02 	sts	0x02C8, r21
    183e:	40 93 c7 02 	sts	0x02C7, r20
    1842:	81 93       	st	Z+, r24
    1844:	91 93       	st	Z+, r25
    1846:	02 c0       	rjmp	.+4      	; 0x184c <malloc+0x128>
    1848:	e0 e0       	ldi	r30, 0x00	; 0
    184a:	f0 e0       	ldi	r31, 0x00	; 0
    184c:	cf 01       	movw	r24, r30
    184e:	df 91       	pop	r29
    1850:	cf 91       	pop	r28
    1852:	08 95       	ret

00001854 <free>:
    1854:	cf 93       	push	r28
    1856:	df 93       	push	r29
    1858:	00 97       	sbiw	r24, 0x00	; 0
    185a:	09 f4       	brne	.+2      	; 0x185e <free+0xa>
    185c:	87 c0       	rjmp	.+270    	; 0x196c <free+0x118>
    185e:	fc 01       	movw	r30, r24
    1860:	32 97       	sbiw	r30, 0x02	; 2
    1862:	13 82       	std	Z+3, r1	; 0x03
    1864:	12 82       	std	Z+2, r1	; 0x02
    1866:	c0 91 c9 02 	lds	r28, 0x02C9
    186a:	d0 91 ca 02 	lds	r29, 0x02CA
    186e:	20 97       	sbiw	r28, 0x00	; 0
    1870:	81 f4       	brne	.+32     	; 0x1892 <free+0x3e>
    1872:	20 81       	ld	r18, Z
    1874:	31 81       	ldd	r19, Z+1	; 0x01
    1876:	28 0f       	add	r18, r24
    1878:	39 1f       	adc	r19, r25
    187a:	80 91 c7 02 	lds	r24, 0x02C7
    187e:	90 91 c8 02 	lds	r25, 0x02C8
    1882:	82 17       	cp	r24, r18
    1884:	93 07       	cpc	r25, r19
    1886:	79 f5       	brne	.+94     	; 0x18e6 <free+0x92>
    1888:	f0 93 c8 02 	sts	0x02C8, r31
    188c:	e0 93 c7 02 	sts	0x02C7, r30
    1890:	6d c0       	rjmp	.+218    	; 0x196c <free+0x118>
    1892:	de 01       	movw	r26, r28
    1894:	20 e0       	ldi	r18, 0x00	; 0
    1896:	30 e0       	ldi	r19, 0x00	; 0
    1898:	ae 17       	cp	r26, r30
    189a:	bf 07       	cpc	r27, r31
    189c:	50 f4       	brcc	.+20     	; 0x18b2 <free+0x5e>
    189e:	12 96       	adiw	r26, 0x02	; 2
    18a0:	4d 91       	ld	r20, X+
    18a2:	5c 91       	ld	r21, X
    18a4:	13 97       	sbiw	r26, 0x03	; 3
    18a6:	9d 01       	movw	r18, r26
    18a8:	41 15       	cp	r20, r1
    18aa:	51 05       	cpc	r21, r1
    18ac:	09 f1       	breq	.+66     	; 0x18f0 <free+0x9c>
    18ae:	da 01       	movw	r26, r20
    18b0:	f3 cf       	rjmp	.-26     	; 0x1898 <free+0x44>
    18b2:	b3 83       	std	Z+3, r27	; 0x03
    18b4:	a2 83       	std	Z+2, r26	; 0x02
    18b6:	40 81       	ld	r20, Z
    18b8:	51 81       	ldd	r21, Z+1	; 0x01
    18ba:	84 0f       	add	r24, r20
    18bc:	95 1f       	adc	r25, r21
    18be:	8a 17       	cp	r24, r26
    18c0:	9b 07       	cpc	r25, r27
    18c2:	71 f4       	brne	.+28     	; 0x18e0 <free+0x8c>
    18c4:	8d 91       	ld	r24, X+
    18c6:	9c 91       	ld	r25, X
    18c8:	11 97       	sbiw	r26, 0x01	; 1
    18ca:	84 0f       	add	r24, r20
    18cc:	95 1f       	adc	r25, r21
    18ce:	02 96       	adiw	r24, 0x02	; 2
    18d0:	91 83       	std	Z+1, r25	; 0x01
    18d2:	80 83       	st	Z, r24
    18d4:	12 96       	adiw	r26, 0x02	; 2
    18d6:	8d 91       	ld	r24, X+
    18d8:	9c 91       	ld	r25, X
    18da:	13 97       	sbiw	r26, 0x03	; 3
    18dc:	93 83       	std	Z+3, r25	; 0x03
    18de:	82 83       	std	Z+2, r24	; 0x02
    18e0:	21 15       	cp	r18, r1
    18e2:	31 05       	cpc	r19, r1
    18e4:	29 f4       	brne	.+10     	; 0x18f0 <free+0x9c>
    18e6:	f0 93 ca 02 	sts	0x02CA, r31
    18ea:	e0 93 c9 02 	sts	0x02C9, r30
    18ee:	3e c0       	rjmp	.+124    	; 0x196c <free+0x118>
    18f0:	d9 01       	movw	r26, r18
    18f2:	13 96       	adiw	r26, 0x03	; 3
    18f4:	fc 93       	st	X, r31
    18f6:	ee 93       	st	-X, r30
    18f8:	12 97       	sbiw	r26, 0x02	; 2
    18fa:	4d 91       	ld	r20, X+
    18fc:	5d 91       	ld	r21, X+
    18fe:	a4 0f       	add	r26, r20
    1900:	b5 1f       	adc	r27, r21
    1902:	ea 17       	cp	r30, r26
    1904:	fb 07       	cpc	r31, r27
    1906:	79 f4       	brne	.+30     	; 0x1926 <free+0xd2>
    1908:	80 81       	ld	r24, Z
    190a:	91 81       	ldd	r25, Z+1	; 0x01
    190c:	84 0f       	add	r24, r20
    190e:	95 1f       	adc	r25, r21
    1910:	02 96       	adiw	r24, 0x02	; 2
    1912:	d9 01       	movw	r26, r18
    1914:	11 96       	adiw	r26, 0x01	; 1
    1916:	9c 93       	st	X, r25
    1918:	8e 93       	st	-X, r24
    191a:	82 81       	ldd	r24, Z+2	; 0x02
    191c:	93 81       	ldd	r25, Z+3	; 0x03
    191e:	13 96       	adiw	r26, 0x03	; 3
    1920:	9c 93       	st	X, r25
    1922:	8e 93       	st	-X, r24
    1924:	12 97       	sbiw	r26, 0x02	; 2
    1926:	e0 e0       	ldi	r30, 0x00	; 0
    1928:	f0 e0       	ldi	r31, 0x00	; 0
    192a:	8a 81       	ldd	r24, Y+2	; 0x02
    192c:	9b 81       	ldd	r25, Y+3	; 0x03
    192e:	00 97       	sbiw	r24, 0x00	; 0
    1930:	19 f0       	breq	.+6      	; 0x1938 <free+0xe4>
    1932:	fe 01       	movw	r30, r28
    1934:	ec 01       	movw	r28, r24
    1936:	f9 cf       	rjmp	.-14     	; 0x192a <free+0xd6>
    1938:	ce 01       	movw	r24, r28
    193a:	02 96       	adiw	r24, 0x02	; 2
    193c:	28 81       	ld	r18, Y
    193e:	39 81       	ldd	r19, Y+1	; 0x01
    1940:	82 0f       	add	r24, r18
    1942:	93 1f       	adc	r25, r19
    1944:	20 91 c7 02 	lds	r18, 0x02C7
    1948:	30 91 c8 02 	lds	r19, 0x02C8
    194c:	28 17       	cp	r18, r24
    194e:	39 07       	cpc	r19, r25
    1950:	69 f4       	brne	.+26     	; 0x196c <free+0x118>
    1952:	30 97       	sbiw	r30, 0x00	; 0
    1954:	29 f4       	brne	.+10     	; 0x1960 <free+0x10c>
    1956:	10 92 ca 02 	sts	0x02CA, r1
    195a:	10 92 c9 02 	sts	0x02C9, r1
    195e:	02 c0       	rjmp	.+4      	; 0x1964 <free+0x110>
    1960:	13 82       	std	Z+3, r1	; 0x03
    1962:	12 82       	std	Z+2, r1	; 0x02
    1964:	d0 93 c8 02 	sts	0x02C8, r29
    1968:	c0 93 c7 02 	sts	0x02C7, r28
    196c:	df 91       	pop	r29
    196e:	cf 91       	pop	r28
    1970:	08 95       	ret

00001972 <strnlen_P>:
    1972:	fc 01       	movw	r30, r24
    1974:	05 90       	lpm	r0, Z+
    1976:	61 50       	subi	r22, 0x01	; 1
    1978:	70 40       	sbci	r23, 0x00	; 0
    197a:	01 10       	cpse	r0, r1
    197c:	d8 f7       	brcc	.-10     	; 0x1974 <strnlen_P+0x2>
    197e:	80 95       	com	r24
    1980:	90 95       	com	r25
    1982:	8e 0f       	add	r24, r30
    1984:	9f 1f       	adc	r25, r31
    1986:	08 95       	ret

00001988 <memset>:
    1988:	dc 01       	movw	r26, r24
    198a:	01 c0       	rjmp	.+2      	; 0x198e <memset+0x6>
    198c:	6d 93       	st	X+, r22
    198e:	41 50       	subi	r20, 0x01	; 1
    1990:	50 40       	sbci	r21, 0x00	; 0
    1992:	e0 f7       	brcc	.-8      	; 0x198c <memset+0x4>
    1994:	08 95       	ret

00001996 <strnlen>:
    1996:	fc 01       	movw	r30, r24
    1998:	61 50       	subi	r22, 0x01	; 1
    199a:	70 40       	sbci	r23, 0x00	; 0
    199c:	01 90       	ld	r0, Z+
    199e:	01 10       	cpse	r0, r1
    19a0:	d8 f7       	brcc	.-10     	; 0x1998 <strnlen+0x2>
    19a2:	80 95       	com	r24
    19a4:	90 95       	com	r25
    19a6:	8e 0f       	add	r24, r30
    19a8:	9f 1f       	adc	r25, r31
    19aa:	08 95       	ret

000019ac <fputc>:
    19ac:	0f 93       	push	r16
    19ae:	1f 93       	push	r17
    19b0:	cf 93       	push	r28
    19b2:	df 93       	push	r29
    19b4:	18 2f       	mov	r17, r24
    19b6:	09 2f       	mov	r16, r25
    19b8:	eb 01       	movw	r28, r22
    19ba:	8b 81       	ldd	r24, Y+3	; 0x03
    19bc:	81 fd       	sbrc	r24, 1
    19be:	03 c0       	rjmp	.+6      	; 0x19c6 <fputc+0x1a>
    19c0:	8f ef       	ldi	r24, 0xFF	; 255
    19c2:	9f ef       	ldi	r25, 0xFF	; 255
    19c4:	20 c0       	rjmp	.+64     	; 0x1a06 <fputc+0x5a>
    19c6:	82 ff       	sbrs	r24, 2
    19c8:	10 c0       	rjmp	.+32     	; 0x19ea <fputc+0x3e>
    19ca:	4e 81       	ldd	r20, Y+6	; 0x06
    19cc:	5f 81       	ldd	r21, Y+7	; 0x07
    19ce:	2c 81       	ldd	r18, Y+4	; 0x04
    19d0:	3d 81       	ldd	r19, Y+5	; 0x05
    19d2:	42 17       	cp	r20, r18
    19d4:	53 07       	cpc	r21, r19
    19d6:	7c f4       	brge	.+30     	; 0x19f6 <fputc+0x4a>
    19d8:	e8 81       	ld	r30, Y
    19da:	f9 81       	ldd	r31, Y+1	; 0x01
    19dc:	9f 01       	movw	r18, r30
    19de:	2f 5f       	subi	r18, 0xFF	; 255
    19e0:	3f 4f       	sbci	r19, 0xFF	; 255
    19e2:	39 83       	std	Y+1, r19	; 0x01
    19e4:	28 83       	st	Y, r18
    19e6:	10 83       	st	Z, r17
    19e8:	06 c0       	rjmp	.+12     	; 0x19f6 <fputc+0x4a>
    19ea:	e8 85       	ldd	r30, Y+8	; 0x08
    19ec:	f9 85       	ldd	r31, Y+9	; 0x09
    19ee:	81 2f       	mov	r24, r17
    19f0:	19 95       	eicall
    19f2:	89 2b       	or	r24, r25
    19f4:	29 f7       	brne	.-54     	; 0x19c0 <fputc+0x14>
    19f6:	2e 81       	ldd	r18, Y+6	; 0x06
    19f8:	3f 81       	ldd	r19, Y+7	; 0x07
    19fa:	2f 5f       	subi	r18, 0xFF	; 255
    19fc:	3f 4f       	sbci	r19, 0xFF	; 255
    19fe:	3f 83       	std	Y+7, r19	; 0x07
    1a00:	2e 83       	std	Y+6, r18	; 0x06
    1a02:	81 2f       	mov	r24, r17
    1a04:	90 2f       	mov	r25, r16
    1a06:	df 91       	pop	r29
    1a08:	cf 91       	pop	r28
    1a0a:	1f 91       	pop	r17
    1a0c:	0f 91       	pop	r16
    1a0e:	08 95       	ret

00001a10 <__ultoa_invert>:
    1a10:	fa 01       	movw	r30, r20
    1a12:	aa 27       	eor	r26, r26
    1a14:	28 30       	cpi	r18, 0x08	; 8
    1a16:	51 f1       	breq	.+84     	; 0x1a6c <__ultoa_invert+0x5c>
    1a18:	20 31       	cpi	r18, 0x10	; 16
    1a1a:	81 f1       	breq	.+96     	; 0x1a7c <__ultoa_invert+0x6c>
    1a1c:	e8 94       	clt
    1a1e:	6f 93       	push	r22
    1a20:	6e 7f       	andi	r22, 0xFE	; 254
    1a22:	6e 5f       	subi	r22, 0xFE	; 254
    1a24:	7f 4f       	sbci	r23, 0xFF	; 255
    1a26:	8f 4f       	sbci	r24, 0xFF	; 255
    1a28:	9f 4f       	sbci	r25, 0xFF	; 255
    1a2a:	af 4f       	sbci	r26, 0xFF	; 255
    1a2c:	b1 e0       	ldi	r27, 0x01	; 1
    1a2e:	3e d0       	rcall	.+124    	; 0x1aac <__ultoa_invert+0x9c>
    1a30:	b4 e0       	ldi	r27, 0x04	; 4
    1a32:	3c d0       	rcall	.+120    	; 0x1aac <__ultoa_invert+0x9c>
    1a34:	67 0f       	add	r22, r23
    1a36:	78 1f       	adc	r23, r24
    1a38:	89 1f       	adc	r24, r25
    1a3a:	9a 1f       	adc	r25, r26
    1a3c:	a1 1d       	adc	r26, r1
    1a3e:	68 0f       	add	r22, r24
    1a40:	79 1f       	adc	r23, r25
    1a42:	8a 1f       	adc	r24, r26
    1a44:	91 1d       	adc	r25, r1
    1a46:	a1 1d       	adc	r26, r1
    1a48:	6a 0f       	add	r22, r26
    1a4a:	71 1d       	adc	r23, r1
    1a4c:	81 1d       	adc	r24, r1
    1a4e:	91 1d       	adc	r25, r1
    1a50:	a1 1d       	adc	r26, r1
    1a52:	20 d0       	rcall	.+64     	; 0x1a94 <__ultoa_invert+0x84>
    1a54:	09 f4       	brne	.+2      	; 0x1a58 <__ultoa_invert+0x48>
    1a56:	68 94       	set
    1a58:	3f 91       	pop	r19
    1a5a:	2a e0       	ldi	r18, 0x0A	; 10
    1a5c:	26 9f       	mul	r18, r22
    1a5e:	11 24       	eor	r1, r1
    1a60:	30 19       	sub	r19, r0
    1a62:	30 5d       	subi	r19, 0xD0	; 208
    1a64:	31 93       	st	Z+, r19
    1a66:	de f6       	brtc	.-74     	; 0x1a1e <__ultoa_invert+0xe>
    1a68:	cf 01       	movw	r24, r30
    1a6a:	08 95       	ret
    1a6c:	46 2f       	mov	r20, r22
    1a6e:	47 70       	andi	r20, 0x07	; 7
    1a70:	40 5d       	subi	r20, 0xD0	; 208
    1a72:	41 93       	st	Z+, r20
    1a74:	b3 e0       	ldi	r27, 0x03	; 3
    1a76:	0f d0       	rcall	.+30     	; 0x1a96 <__ultoa_invert+0x86>
    1a78:	c9 f7       	brne	.-14     	; 0x1a6c <__ultoa_invert+0x5c>
    1a7a:	f6 cf       	rjmp	.-20     	; 0x1a68 <__ultoa_invert+0x58>
    1a7c:	46 2f       	mov	r20, r22
    1a7e:	4f 70       	andi	r20, 0x0F	; 15
    1a80:	40 5d       	subi	r20, 0xD0	; 208
    1a82:	4a 33       	cpi	r20, 0x3A	; 58
    1a84:	18 f0       	brcs	.+6      	; 0x1a8c <__ultoa_invert+0x7c>
    1a86:	49 5d       	subi	r20, 0xD9	; 217
    1a88:	31 fd       	sbrc	r19, 1
    1a8a:	40 52       	subi	r20, 0x20	; 32
    1a8c:	41 93       	st	Z+, r20
    1a8e:	02 d0       	rcall	.+4      	; 0x1a94 <__ultoa_invert+0x84>
    1a90:	a9 f7       	brne	.-22     	; 0x1a7c <__ultoa_invert+0x6c>
    1a92:	ea cf       	rjmp	.-44     	; 0x1a68 <__ultoa_invert+0x58>
    1a94:	b4 e0       	ldi	r27, 0x04	; 4
    1a96:	a6 95       	lsr	r26
    1a98:	97 95       	ror	r25
    1a9a:	87 95       	ror	r24
    1a9c:	77 95       	ror	r23
    1a9e:	67 95       	ror	r22
    1aa0:	ba 95       	dec	r27
    1aa2:	c9 f7       	brne	.-14     	; 0x1a96 <__ultoa_invert+0x86>
    1aa4:	00 97       	sbiw	r24, 0x00	; 0
    1aa6:	61 05       	cpc	r22, r1
    1aa8:	71 05       	cpc	r23, r1
    1aaa:	08 95       	ret
    1aac:	9b 01       	movw	r18, r22
    1aae:	ac 01       	movw	r20, r24
    1ab0:	0a 2e       	mov	r0, r26
    1ab2:	06 94       	lsr	r0
    1ab4:	57 95       	ror	r21
    1ab6:	47 95       	ror	r20
    1ab8:	37 95       	ror	r19
    1aba:	27 95       	ror	r18
    1abc:	ba 95       	dec	r27
    1abe:	c9 f7       	brne	.-14     	; 0x1ab2 <__ultoa_invert+0xa2>
    1ac0:	62 0f       	add	r22, r18
    1ac2:	73 1f       	adc	r23, r19
    1ac4:	84 1f       	adc	r24, r20
    1ac6:	95 1f       	adc	r25, r21
    1ac8:	a0 1d       	adc	r26, r0
    1aca:	08 95       	ret

00001acc <_exit>:
    1acc:	f8 94       	cli

00001ace <__stop_program>:
    1ace:	ff cf       	rjmp	.-2      	; 0x1ace <__stop_program>
